
pzcc.lib.so:     file format elf32-i386


Disassembly of section .init:

00000798 <_init>:
 798:	53                   	push   %ebx
 799:	83 ec 08             	sub    $0x8,%esp
 79c:	e8 4f 00 00 00       	call   7f0 <__x86.get_pc_thunk.bx>
 7a1:	81 c3 0f 26 00 00    	add    $0x260f,%ebx
 7a7:	8b 83 f4 ff ff ff    	mov    -0xc(%ebx),%eax
 7ad:	85 c0                	test   %eax,%eax
 7af:	74 05                	je     7b6 <_init+0x1e>
 7b1:	e8 2a 00 00 00       	call   7e0 <__gmon_start__@plt>
 7b6:	83 c4 08             	add    $0x8,%esp
 7b9:	5b                   	pop    %ebx
 7ba:	c3                   	ret    

Disassembly of section .plt:

000007c0 <__cxa_finalize@plt-0x10>:
 7c0:	ff b3 04 00 00 00    	pushl  0x4(%ebx)
 7c6:	ff a3 08 00 00 00    	jmp    *0x8(%ebx)
 7cc:	00 00                	add    %al,(%eax)
	...

000007d0 <__cxa_finalize@plt>:
 7d0:	ff a3 0c 00 00 00    	jmp    *0xc(%ebx)
 7d6:	68 00 00 00 00       	push   $0x0
 7db:	e9 e0 ff ff ff       	jmp    7c0 <_init+0x28>

000007e0 <__gmon_start__@plt>:
 7e0:	ff a3 10 00 00 00    	jmp    *0x10(%ebx)
 7e6:	68 08 00 00 00       	push   $0x8
 7eb:	e9 d0 ff ff ff       	jmp    7c0 <_init+0x28>

Disassembly of section .text:

000007f0 <__x86.get_pc_thunk.bx>:
 7f0:	8b 1c 24             	mov    (%esp),%ebx
 7f3:	c3                   	ret    
 7f4:	66 90                	xchg   %ax,%ax
 7f6:	66 90                	xchg   %ax,%ax
 7f8:	66 90                	xchg   %ax,%ax
 7fa:	66 90                	xchg   %ax,%ax
 7fc:	66 90                	xchg   %ax,%ax
 7fe:	66 90                	xchg   %ax,%ax

00000800 <deregister_tm_clones>:
 800:	55                   	push   %ebp
 801:	89 e5                	mov    %esp,%ebp
 803:	53                   	push   %ebx
 804:	e8 e7 ff ff ff       	call   7f0 <__x86.get_pc_thunk.bx>
 809:	81 c3 a7 25 00 00    	add    $0x25a7,%ebx
 80f:	83 ec 14             	sub    $0x14,%esp
 812:	8d 83 1b 00 00 00    	lea    0x1b(%ebx),%eax
 818:	8d 93 18 00 00 00    	lea    0x18(%ebx),%edx
 81e:	29 d0                	sub    %edx,%eax
 820:	83 f8 06             	cmp    $0x6,%eax
 823:	77 06                	ja     82b <deregister_tm_clones+0x2b>
 825:	83 c4 14             	add    $0x14,%esp
 828:	5b                   	pop    %ebx
 829:	5d                   	pop    %ebp
 82a:	c3                   	ret    
 82b:	8b 83 ec ff ff ff    	mov    -0x14(%ebx),%eax
 831:	85 c0                	test   %eax,%eax
 833:	74 f0                	je     825 <deregister_tm_clones+0x25>
 835:	89 14 24             	mov    %edx,(%esp)
 838:	ff d0                	call   *%eax
 83a:	eb e9                	jmp    825 <deregister_tm_clones+0x25>
 83c:	8d 74 26 00          	lea    0x0(%esi,%eiz,1),%esi

00000840 <register_tm_clones>:
 840:	55                   	push   %ebp
 841:	89 e5                	mov    %esp,%ebp
 843:	53                   	push   %ebx
 844:	e8 a7 ff ff ff       	call   7f0 <__x86.get_pc_thunk.bx>
 849:	81 c3 67 25 00 00    	add    $0x2567,%ebx
 84f:	83 ec 14             	sub    $0x14,%esp
 852:	8d 83 18 00 00 00    	lea    0x18(%ebx),%eax
 858:	8d 93 18 00 00 00    	lea    0x18(%ebx),%edx
 85e:	29 d0                	sub    %edx,%eax
 860:	c1 f8 02             	sar    $0x2,%eax
 863:	89 c1                	mov    %eax,%ecx
 865:	c1 e9 1f             	shr    $0x1f,%ecx
 868:	01 c8                	add    %ecx,%eax
 86a:	d1 f8                	sar    %eax
 86c:	75 06                	jne    874 <register_tm_clones+0x34>
 86e:	83 c4 14             	add    $0x14,%esp
 871:	5b                   	pop    %ebx
 872:	5d                   	pop    %ebp
 873:	c3                   	ret    
 874:	8b 8b fc ff ff ff    	mov    -0x4(%ebx),%ecx
 87a:	85 c9                	test   %ecx,%ecx
 87c:	74 f0                	je     86e <register_tm_clones+0x2e>
 87e:	89 44 24 04          	mov    %eax,0x4(%esp)
 882:	89 14 24             	mov    %edx,(%esp)
 885:	ff d1                	call   *%ecx
 887:	eb e5                	jmp    86e <register_tm_clones+0x2e>
 889:	8d b4 26 00 00 00 00 	lea    0x0(%esi,%eiz,1),%esi

00000890 <__do_global_dtors_aux>:
 890:	55                   	push   %ebp
 891:	89 e5                	mov    %esp,%ebp
 893:	53                   	push   %ebx
 894:	e8 57 ff ff ff       	call   7f0 <__x86.get_pc_thunk.bx>
 899:	81 c3 17 25 00 00    	add    $0x2517,%ebx
 89f:	83 ec 14             	sub    $0x14,%esp
 8a2:	80 bb 18 00 00 00 00 	cmpb   $0x0,0x18(%ebx)
 8a9:	75 24                	jne    8cf <__do_global_dtors_aux+0x3f>
 8ab:	8b 83 f0 ff ff ff    	mov    -0x10(%ebx),%eax
 8b1:	85 c0                	test   %eax,%eax
 8b3:	74 0e                	je     8c3 <__do_global_dtors_aux+0x33>
 8b5:	8b 83 14 00 00 00    	mov    0x14(%ebx),%eax
 8bb:	89 04 24             	mov    %eax,(%esp)
 8be:	e8 0d ff ff ff       	call   7d0 <__cxa_finalize@plt>
 8c3:	e8 38 ff ff ff       	call   800 <deregister_tm_clones>
 8c8:	c6 83 18 00 00 00 01 	movb   $0x1,0x18(%ebx)
 8cf:	83 c4 14             	add    $0x14,%esp
 8d2:	5b                   	pop    %ebx
 8d3:	5d                   	pop    %ebp
 8d4:	c3                   	ret    
 8d5:	8d 74 26 00          	lea    0x0(%esi,%eiz,1),%esi
 8d9:	8d bc 27 00 00 00 00 	lea    0x0(%edi,%eiz,1),%edi

000008e0 <frame_dummy>:
 8e0:	55                   	push   %ebp
 8e1:	89 e5                	mov    %esp,%ebp
 8e3:	53                   	push   %ebx
 8e4:	e8 07 ff ff ff       	call   7f0 <__x86.get_pc_thunk.bx>
 8e9:	81 c3 c7 24 00 00    	add    $0x24c7,%ebx
 8ef:	83 ec 14             	sub    $0x14,%esp
 8f2:	8b 93 08 ff ff ff    	mov    -0xf8(%ebx),%edx
 8f8:	85 d2                	test   %edx,%edx
 8fa:	74 15                	je     911 <frame_dummy+0x31>
 8fc:	8b 83 f8 ff ff ff    	mov    -0x8(%ebx),%eax
 902:	85 c0                	test   %eax,%eax
 904:	74 0b                	je     911 <frame_dummy+0x31>
 906:	8d 93 08 ff ff ff    	lea    -0xf8(%ebx),%edx
 90c:	89 14 24             	mov    %edx,(%esp)
 90f:	ff d0                	call   *%eax
 911:	83 c4 14             	add    $0x14,%esp
 914:	5b                   	pop    %ebx
 915:	5d                   	pop    %ebp
 916:	e9 25 ff ff ff       	jmp    840 <register_tm_clones>
 91b:	90                   	nop

Disassembly of section xseg:

00000920 <abs>:
     920:	55                   	push   %ebp
     921:	8b ec                	mov    %esp,%ebp
     923:	8b 46 08             	mov    0x8(%esi),%eax
     926:	0b c0                	or     %eax,%eax
     928:	7d 02                	jge    92c <abs+0xc>
     92a:	f7 d8                	neg    %eax
     92c:	8b 76 06             	mov    0x6(%esi),%esi
     92f:	89 04 5d c3 66 90 66 	mov    %eax,0x669066c3(,%ebx,2)
     936:	90                   	nop
     937:	66 90                	xchg   %ax,%ax
     939:	66 90                	xchg   %ax,%ax
     93b:	66 90                	xchg   %ax,%ax
     93d:	66 90                	xchg   %ax,%ax
     93f:	90                   	nop

00000940 <arctan>:
     940:	55                   	push   %ebp
     941:	8b ec                	mov    %esp,%ebp
     943:	9b db 6e 08          	fldt   0x8(%esi)
     947:	9b d9 e8             	fld1   
     94a:	9b d9 f3             	fpatan 
     94d:	8b 76 06             	mov    0x6(%esi),%esi
     950:	9b db 3c 5d c3 66 90 	fstpt  0x669066c3(,%ebx,2)
     957:	66 
     958:	90                   	nop
     959:	66 90                	xchg   %ax,%ax
     95b:	66 90                	xchg   %ax,%ax
     95d:	66 90                	xchg   %ax,%ax
     95f:	90                   	nop

00000960 <chr>:
     960:	55                   	push   %ebp
     961:	8b ec                	mov    %esp,%ebp
     963:	8b 46 08             	mov    0x8(%esi),%eax
     966:	8b 76 06             	mov    0x6(%esi),%esi
     969:	88 04 5d c3 66 90 90 	mov    %al,-0x6f6f993d(,%ebx,2)

00000970 <cos>:
     970:	55                   	push   %ebp
     971:	8b ec                	mov    %esp,%ebp
     973:	9b db 6e 08          	fldt   0x8(%esi)
     977:	9b df 06             	fild   (%esi)
     97a:	9f                   	lahf   
     97b:	09 9b de f9 9b d9    	or     %ebx,-0x26640622(%ebx)
     981:	f2                   	repnz
     982:	9b d9 c1             	fld    %st(1)
     985:	9b dc c8             	fmul   %st,%st(0)
     988:	9b d9 e8             	fld1   
     98b:	9b d8 e1             	fsub   %st(1),%st
     98e:	9b dd db             	fstp   %st(3)
     991:	9b de c1             	faddp  %st,%st(1)
     994:	9b de f9             	fdivrp %st,%st(1)
     997:	8b 76 06             	mov    0x6(%esi),%esi
     99a:	9b db 3c 5d c3 02 00 	fstpt  0x660002c3(,%ebx,2)
     9a1:	66 

0000099f <two>:
     99f:	02 00                	add    (%eax),%al
     9a1:	66 90                	xchg   %ax,%ax
     9a3:	66 90                	xchg   %ax,%ax
     9a5:	66 90                	xchg   %ax,%ax
     9a7:	66 90                	xchg   %ax,%ax
     9a9:	66 90                	xchg   %ax,%ax
     9ab:	66 90                	xchg   %ax,%ax
     9ad:	66 90                	xchg   %ax,%ax
     9af:	90                   	nop

000009b0 <__dispose>:
     9b0:	c3                   	ret    
     9b1:	66 90                	xchg   %ax,%ax
     9b3:	66 90                	xchg   %ax,%ax
     9b5:	66 90                	xchg   %ax,%ax
     9b7:	66 90                	xchg   %ax,%ax
     9b9:	66 90                	xchg   %ax,%ax
     9bb:	66 90                	xchg   %ax,%ax
     9bd:	66 90                	xchg   %ax,%ax
     9bf:	90                   	nop

000009c0 <exit>:
     9c0:	55                   	push   %ebp
     9c1:	8b ec                	mov    %esp,%ebp
     9c3:	b4 4c                	mov    $0x4c,%ah
     9c5:	8a 46 08             	mov    0x8(%esi),%al
     9c8:	cd 21                	int    $0x21
     9ca:	66 90                	xchg   %ax,%ax
     9cc:	66 90                	xchg   %ax,%ax
     9ce:	66 90                	xchg   %ax,%ax

000009d0 <exp>:
     9d0:	55                   	push   %ebp
     9d1:	8b ec                	mov    %esp,%ebp
     9d3:	9b db 6e 08          	fldt   0x8(%esi)
     9d7:	9b d9 ea             	fldl2e 
     9da:	9b de c9             	fmulp  %st,%st(1)
     9dd:	9b d9 e8             	fld1   
     9e0:	9b d9 fd             	fscale 
     9e3:	9b dd d9             	fstp   %st(1)
     9e6:	8b 76 06             	mov    0x6(%esi),%esi
     9e9:	9b db 3c 5d c3 66 90 	fstpt  0x559066c3(,%ebx,2)
     9f0:	55 

000009f0 <_fabs>:
     9f0:	55                   	push   %ebp
     9f1:	8b ec                	mov    %esp,%ebp
     9f3:	9b db 6e 08          	fldt   0x8(%esi)
     9f7:	9b d9 e1             	fabs   
     9fa:	8b 76 06             	mov    0x6(%esi),%esi
     9fd:	9b db 3c 5d c3 66 90 	fstpt  0x669066c3(,%ebx,2)
     a04:	66 
     a05:	90                   	nop
     a06:	66 90                	xchg   %ax,%ax
     a08:	66 90                	xchg   %ax,%ax
     a0a:	66 90                	xchg   %ax,%ax
     a0c:	66 90                	xchg   %ax,%ax
     a0e:	66 90                	xchg   %ax,%ax

00000a10 <formatInteger>:
     a10:	55                   	push   %ebp
     a11:	8b ec                	mov    %esp,%ebp
     a13:	83 ec 08             	sub    $0x8,%esp
     a16:	8b 46 0b             	mov    0xb(%esi),%eax
     a19:	8b d0                	mov    %eax,%edx
     a1b:	8a 4e 0a             	mov    0xa(%esi),%cl
     a1e:	c7 46 fe 53 0b 8a 5e 	movl   $0x5e8a0b53,-0x2(%esi)
     a25:	09 f6                	or     %esi,%esi
     a27:	c3                   	ret    
     a28:	40                   	inc    %eax
     a29:	74 05                	je     a30 <formatInteger+0x20>
     a2b:	c7 46 fe 2e 0b 8b 5e 	movl   $0x5e8b0b2e,-0x2(%esi)
     a32:	0d c6 46 fd 00       	or     $0xfd46c6,%eax
     a37:	bf 29 0b 85 c0       	mov    $0xc0850b29,%edi
     a3c:	7d 08                	jge    a46 <formatInteger+0x36>
     a3e:	f7 da                	neg    %edx
     a40:	c6 46 fd 2d          	movb   $0x2d,-0x3(%esi)
     a44:	eb 0c                	jmp    a52 <formatInteger+0x42>
     a46:	8a 46 09             	mov    0x9(%esi),%al
     a49:	a9 04 00 74 04       	test   $0x4740004,%eax
     a4e:	c6 46 fd 2b          	movb   $0x2b,-0x3(%esi)
     a52:	85 d2                	test   %edx,%edx
     a54:	75 17                	jne    a6d <formatInteger+0x5d>
     a56:	c6 05 30 47 33 d2 8a 	movb   $0x8a,0xd2334730
     a5d:	d1 89 56 fa 8a 46    	rorl   0x468afa56(%ecx)
     a63:	09 88 46 fc 80 66    	or     %ecx,0x6680fc46(%eax)
     a69:	fc                   	cld    
     a6a:	00 eb                	add    %ch,%bl
     a6c:	3a 33                	cmp    (%ebx),%dh
     a6e:	c0 8a c1 89 46 fa 8a 	rorb   $0x8a,-0x5b9763f(%edx)
     a75:	46                   	inc    %esi
     a76:	09 88 46 fc 80 66    	or     %ecx,0x6680fc46(%eax)
     a7c:	fc                   	cld    
     a7d:	00 85 d2 7e 25 33    	add    %al,0x33257ed2(%ebp)
     a83:	c0 8a 46 08 89 46 f8 	rorb   $0xf8,0x46890846(%edx)
     a8a:	8b c2                	mov    %edx,%eax
     a8c:	99                   	cltd   
     a8d:	f7 7e f8             	idivl  -0x8(%esi)
     a90:	8b 76 fe             	mov    -0x2(%esi),%esi
     a93:	8b c8                	mov    %eax,%ecx
     a95:	8a c2                	mov    %dl,%al
     a97:	25 ff 00 8b d1       	and    $0xd18b00ff,%eax
     a9c:	03 f0                	add    %eax,%esi
     a9e:	8a 04 88             	mov    (%eax,%ecx,4),%al
     aa1:	05 47 85 c9 7f       	add    $0x7fc98547,%eax
     aa6:	e3 8b                	jecxz  a33 <formatInteger+0x23>
     aa8:	4e                   	dec    %esi
     aa9:	fa                   	cli    
     aaa:	8b c7                	mov    %edi,%eax
     aac:	ba 29 0b 2b c2       	mov    $0xc22b0b29,%edx
     ab1:	2b c8                	sub    %eax,%ecx
     ab3:	80 7e fd 00          	cmpb   $0x0,-0x3(%esi)
     ab7:	74 01                	je     aba <formatInteger+0xaa>
     ab9:	49                   	dec    %ecx
     aba:	8d 45 ff             	lea    -0x1(%ebp),%eax
     abd:	80 7e fc 00          	cmpb   $0x0,-0x4(%esi)
     ac1:	75 24                	jne    ae7 <formatInteger+0xd7>
     ac3:	8a 56 09             	mov    0x9(%esi),%dl
     ac6:	f6 c2 02             	test   $0x2,%dl
     ac9:	74 0f                	je     ada <formatInteger+0xca>
     acb:	85 c9                	test   %ecx,%ecx
     acd:	7e 18                	jle    ae7 <formatInteger+0xd7>
     acf:	8b d1                	mov    %ecx,%edx
     ad1:	c6 07 30             	movb   $0x30,(%edi)
     ad4:	43                   	inc    %ebx
     ad5:	4a                   	dec    %edx
     ad6:	75 f9                	jne    ad1 <formatInteger+0xc1>
     ad8:	eb 0d                	jmp    ae7 <formatInteger+0xd7>
     ada:	85 c9                	test   %ecx,%ecx
     adc:	7e 09                	jle    ae7 <formatInteger+0xd7>
     ade:	8b d1                	mov    %ecx,%edx
     ae0:	c6 07 20             	movb   $0x20,(%edi)
     ae3:	43                   	inc    %ebx
     ae4:	4a                   	dec    %edx
     ae5:	75 f9                	jne    ae0 <formatInteger+0xd0>
     ae7:	80 7e fd 00          	cmpb   $0x0,-0x3(%esi)
     aeb:	74 06                	je     af3 <formatInteger+0xe3>
     aed:	8a 56 fd             	mov    -0x3(%esi),%dl
     af0:	88 17                	mov    %dl,(%edi)
     af2:	43                   	inc    %ebx
     af3:	8b f8                	mov    %eax,%edi
     af5:	81 ff 29 0b 72 0c    	cmp    $0xc720b29,%edi
     afb:	8a 05 88 07 43 4f    	mov    0x4f430788,%al
     b01:	81 ff 29 0b 73 f4    	cmp    $0xf4730b29,%edi
     b07:	80 7e fc 00          	cmpb   $0x0,-0x4(%esi)
     b0b:	74 0d                	je     b1a <formatInteger+0x10a>
     b0d:	85 c9                	test   %ecx,%ecx
     b0f:	7e 09                	jle    b1a <formatInteger+0x10a>
     b11:	8b d1                	mov    %ecx,%edx
     b13:	c6 07 20             	movb   $0x20,(%edi)
     b16:	43                   	inc    %ebx
     b17:	4a                   	dec    %edx
     b18:	75 f9                	jne    b13 <formatInteger+0x103>
     b1a:	c6 07 00             	movb   $0x0,(%edi)
     b1d:	8b c3                	mov    %ebx,%eax
     b1f:	2b 46 0d             	sub    0xd(%esi),%eax
     b22:	88 46 06             	mov    %al,0x6(%esi)
     b25:	8b e5                	mov    %ebp,%esp
     b27:	5d                   	pop    %ebp
     b28:	c3                   	ret    

00000b29 <digit>:
     b29:	00 00                	add    %al,(%eax)
     b2b:	00 00                	add    %al,(%eax)
	...

00000b2e <digitsU>:
     b2e:	30 31                	xor    %dh,(%ecx)
     b30:	32 33                	xor    (%ebx),%dh
     b32:	34 35                	xor    $0x35,%al
     b34:	36                   	ss
     b35:	37                   	aaa    
     b36:	38 39                	cmp    %bh,(%ecx)
     b38:	41                   	inc    %ecx
     b39:	42                   	inc    %edx
     b3a:	43                   	inc    %ebx
     b3b:	44                   	inc    %esp
     b3c:	45                   	inc    %ebp
     b3d:	46                   	inc    %esi
     b3e:	47                   	inc    %edi
     b3f:	48                   	dec    %eax
     b40:	49                   	dec    %ecx
     b41:	4a                   	dec    %edx
     b42:	4b                   	dec    %ebx
     b43:	4c                   	dec    %esp
     b44:	4d                   	dec    %ebp
     b45:	4e                   	dec    %esi
     b46:	4f                   	dec    %edi
     b47:	50                   	push   %eax
     b48:	51                   	push   %ecx
     b49:	52                   	push   %edx
     b4a:	53                   	push   %ebx
     b4b:	54                   	push   %esp
     b4c:	55                   	push   %ebp
     b4d:	56                   	push   %esi
     b4e:	57                   	push   %edi
     b4f:	58                   	pop    %eax
     b50:	59                   	pop    %ecx
     b51:	5a                   	pop    %edx
	...

00000b53 <digitsL>:
     b53:	30 31                	xor    %dh,(%ecx)
     b55:	32 33                	xor    (%ebx),%dh
     b57:	34 35                	xor    $0x35,%al
     b59:	36                   	ss
     b5a:	37                   	aaa    
     b5b:	38 39                	cmp    %bh,(%ecx)
     b5d:	61                   	popa   
     b5e:	62 63 64             	bound  %esp,0x64(%ebx)
     b61:	65                   	gs
     b62:	66 67 68 69 6a       	addr16 pushw $0x6a69
     b67:	6b 6c 6d 6e 6f       	imul   $0x6f,0x6e(%ebp,%ebp,2),%ebp
     b6c:	70 71                	jo     bdf <formatReal+0x5f>
     b6e:	72 73                	jb     be3 <formatReal+0x63>
     b70:	74 75                	je     be7 <formatReal+0x67>
     b72:	76 77                	jbe    beb <formatReal+0x6b>
     b74:	78 79                	js     bef <formatReal+0x6f>
     b76:	7a 00                	jp     b78 <digitsL+0x25>
     b78:	66 90                	xchg   %ax,%ax
     b7a:	66 90                	xchg   %ax,%ax
     b7c:	66 90                	xchg   %ax,%ax
     b7e:	66 90                	xchg   %ax,%ax

00000b80 <formatReal>:
     b80:	55                   	push   %ebp
     b81:	8b ec                	mov    %esp,%ebp
     b83:	83 ec 42             	sub    $0x42,%esp
     b86:	56                   	push   %esi
     b87:	57                   	push   %edi
     b88:	c6 46 f9 00          	movb   $0x0,-0x7(%esi)
     b8c:	8b 7e 16             	mov    0x16(%esi),%edi
     b8f:	9b db 6e 0c          	fldt   0xc(%esi)
     b93:	83 ec 0a             	sub    $0xa,%esp
     b96:	9b db 7e b0          	fstpt  -0x50(%esi)
     b9a:	9b                   	fwait
     b9b:	e8 51 05 83 c4       	call   c48310f1 <_end+0xc482e325>
     ba0:	0a 0a                	or     (%edx),%cl
     ba2:	c0                   	(bad)  
     ba3:	74 22                	je     bc7 <formatReal+0x47>
     ba5:	9b d9 ee             	fldz   
     ba8:	9b db 6e 0c          	fldt   0xc(%esi)
     bac:	9b de d9             	fcompp 
     baf:	9b dd 3e             	fstsw  (%esi)
     bb2:	49                   	dec    %ecx
     bb3:	11 9b 8a 26 4a 11    	adc    %ebx,0x114a268a(%ebx)
     bb9:	9e                   	sahf   
     bba:	73 04                	jae    bc0 <formatReal+0x40>
     bbc:	c6 46 f9 2d          	movb   $0x2d,-0x7(%esi)
     bc0:	c7 46 fa 9c 12 eb 1b 	movl   $0x1beb129c,-0x6(%esi)
     bc7:	9b db 6e 0c          	fldt   0xc(%esi)
     bcb:	83 ec 0a             	sub    $0xa,%esp
     bce:	9b db 7e b0          	fstpt  -0x50(%esi)
     bd2:	9b                   	fwait
     bd3:	e8 f5 04 83 c4       	call   c48310cd <_end+0xc482e301>
     bd8:	0a 0a                	or     (%edx),%cl
     bda:	c0                   	(bad)  
     bdb:	74 0c                	je     be9 <formatReal+0x69>
     bdd:	c7 46 fa a0 12 c6 46 	movl   $0x46c612a0,-0x6(%esi)
     be4:	fc                   	cld    
     be5:	03 e9                	add    %ecx,%ebp
     be7:	3d 04 8a 46 08       	cmp    $0x8468a04,%eax
     bec:	b4 00                	mov    $0x0,%ah
     bee:	99                   	cltd   
     bef:	52                   	push   %edx
     bf0:	50                   	push   %eax
     bf1:	9b db 46 b6          	fildl  -0x4a(%esi)
     bf5:	9b                   	fwait
     bf6:	83 c4 04             	add    $0x4,%esp
     bf9:	9b d9 e8             	fld1   
     bfc:	9b de f1             	fdivp  %st,%st(1)
     bff:	9b db 7e e8          	fstpt  -0x18(%esi)
     c03:	9b                   	fwait
     c04:	c7 46 f2 00 00 9b d9 	movl   $0xd99b0000,-0xe(%esi)
     c0b:	ee                   	out    %al,(%dx)
     c0c:	9b db 6e 0c          	fldt   0xc(%esi)
     c10:	9b de d9             	fcompp 
     c13:	9b dd 3e             	fstsw  (%esi)
     c16:	49                   	dec    %ecx
     c17:	11 9b 8a 26 4a 11    	adc    %ebx,0x114a268a(%ebx)
     c1d:	9e                   	sahf   
     c1e:	72 03                	jb     c23 <formatReal+0xa3>
     c20:	e9 f7 00 9b db       	jmp    db9b0d1c <_end+0xdb9adf50>
     c25:	6e                   	outsb  %ds:(%esi),(%dx)
     c26:	0c 9b                	or     $0x9b,%al
     c28:	d9 e0                	fchs   
     c2a:	9b db 7e 0c          	fstpt  0xc(%esi)
     c2e:	9b                   	fwait
     c2f:	c6 46 f9 2d          	movb   $0x2d,-0x7(%esi)
     c33:	e9 e4 00 9b d9       	jmp    d99b0d1c <_end+0xd99adf50>
     c38:	e8 9b db 6e 0c       	call   c6ee7d8 <_end+0xc6eba0c>
     c3d:	9b de d9             	fcompp 
     c40:	9b dd 3e             	fstsw  (%esi)
     c43:	49                   	dec    %ecx
     c44:	11 9b 8a 26 4a 11    	adc    %ebx,0x114a268a(%ebx)
     c4a:	9e                   	sahf   
     c4b:	72 64                	jb     cb1 <formatReal+0x131>
     c4d:	c7 46 dc 01 00 8a 46 	movl   $0x468a0001,-0x24(%esi)
     c54:	08 32                	or     %dh,(%edx)
     c56:	e4 33                	in     $0x33,%al
     c58:	d2                   	(bad)  
     c59:	33 c9                	xor    %ecx,%ecx
     c5b:	51                   	push   %ecx
     c5c:	51                   	push   %ecx
     c5d:	52                   	push   %edx
     c5e:	50                   	push   %eax
     c5f:	9b df 6e b2          	fildll -0x4e(%esi)
     c63:	9b                   	fwait
     c64:	83 c4 08             	add    $0x8,%esp
     c67:	9b db 7e de          	fstpt  -0x22(%esi)
     c6b:	9b                   	fwait
     c6c:	eb 13                	jmp    c81 <formatReal+0x101>
     c6e:	9b db 6e de          	fldt   -0x22(%esi)
     c72:	9b db 6e de          	fldt   -0x22(%esi)
     c76:	9b de c9             	fmulp  %st,%st(1)
     c79:	9b db 7e de          	fstpt  -0x22(%esi)
     c7d:	9b                   	fwait
     c7e:	d1 66 dc             	shll   -0x24(%esi)
     c81:	9b db 6e de          	fldt   -0x22(%esi)
     c85:	9b db 6e 0c          	fldt   0xc(%esi)
     c89:	9b de d9             	fcompp 
     c8c:	9b dd 3e             	fstsw  (%esi)
     c8f:	49                   	dec    %ecx
     c90:	11 9b 8a 26 4a 11    	adc    %ebx,0x114a268a(%ebx)
     c96:	9e                   	sahf   
     c97:	73 d5                	jae    c6e <formatReal+0xee>
     c99:	8b 46 dc             	mov    -0x24(%esi),%eax
     c9c:	01 46 f2             	add    %eax,-0xe(%esi)
     c9f:	9b db 6e 0c          	fldt   0xc(%esi)
     ca3:	9b db 6e de          	fldt   -0x22(%esi)
     ca7:	9b de f9             	fdivrp %st,%st(1)
     caa:	9b db 7e 0c          	fstpt  0xc(%esi)
     cae:	9b                   	fwait
     caf:	eb 69                	jmp    d1a <formatReal+0x19a>
     cb1:	9b db 6e e8          	fldt   -0x18(%esi)
     cb5:	9b db 6e 0c          	fldt   0xc(%esi)
     cb9:	9b de d9             	fcompp 
     cbc:	9b dd 3e             	fstsw  (%esi)
     cbf:	49                   	dec    %ecx
     cc0:	11 9b 8a 26 4a 11    	adc    %ebx,0x114a268a(%ebx)
     cc6:	9e                   	sahf   
     cc7:	73 6b                	jae    d34 <formatReal+0x1b4>
     cc9:	c7 46 dc 01 00 9b db 	movl   $0xdb9b0001,-0x24(%esi)
     cd0:	6e                   	outsb  %ds:(%esi),(%dx)
     cd1:	e8 9b db 7e de       	call   de7ee871 <_end+0xde7ebaa5>
     cd6:	9b                   	fwait
     cd7:	eb 13                	jmp    cec <formatReal+0x16c>
     cd9:	9b db 6e de          	fldt   -0x22(%esi)
     cdd:	9b db 6e de          	fldt   -0x22(%esi)
     ce1:	9b de c9             	fmulp  %st,%st(1)
     ce4:	9b db 7e de          	fstpt  -0x22(%esi)
     ce8:	9b                   	fwait
     ce9:	d1 66 dc             	shll   -0x24(%esi)
     cec:	9b db 6e de          	fldt   -0x22(%esi)
     cf0:	9b db 6e 0c          	fldt   0xc(%esi)
     cf4:	9b de d9             	fcompp 
     cf7:	9b dd 3e             	fstsw  (%esi)
     cfa:	49                   	dec    %ecx
     cfb:	11 9b 8a 26 4a 11    	adc    %ebx,0x114a268a(%ebx)
     d01:	9e                   	sahf   
     d02:	72 d5                	jb     cd9 <formatReal+0x159>
     d04:	8b 46 dc             	mov    -0x24(%esi),%eax
     d07:	29 46 f2             	sub    %eax,-0xe(%esi)
     d0a:	9b db 6e 0c          	fldt   0xc(%esi)
     d0e:	9b db 6e de          	fldt   -0x22(%esi)
     d12:	9b de f9             	fdivrp %st,%st(1)
     d15:	9b db 7e 0c          	fstpt  0xc(%esi)
     d19:	9b 9b d9 ee          	fldz   
     d1d:	9b db 6e 0c          	fldt   0xc(%esi)
     d21:	9b de d9             	fcompp 
     d24:	9b dd 3e             	fstsw  (%esi)
     d27:	49                   	dec    %ecx
     d28:	11 9b 8a 26 4a 11    	adc    %ebx,0x114a268a(%ebx)
     d2e:	9e                   	sahf   
     d2f:	76 03                	jbe    d34 <formatReal+0x1b4>
     d31:	e9 02 ff 81 7e       	jmp    7e820c38 <_end+0x7e81de6c>
     d36:	f2 ff 00             	repnz incl (%eax)
     d39:	7f 19                	jg     d54 <formatReal+0x1d4>
     d3b:	8a 46 09             	mov    0x9(%esi),%al
     d3e:	b4 00                	mov    $0x0,%ah
     d40:	83 e0 30             	and    $0x30,%eax
     d43:	83 f8 20             	cmp    $0x20,%eax
     d46:	75 16                	jne    d5e <formatReal+0x1de>
     d48:	83 7e f2 06          	cmpl   $0x6,-0xe(%esi)
     d4c:	7f 06                	jg     d54 <formatReal+0x1d4>
     d4e:	83 7e f2 fb          	cmpl   $0xfffffffb,-0xe(%esi)
     d52:	7f 0a                	jg     d5e <formatReal+0x1de>
     d54:	80 66 09 cf          	andb   $0xcf,0x9(%esi)
     d58:	80 4e 09 10          	orb    $0x10,0x9(%esi)
     d5c:	eb 15                	jmp    d73 <formatReal+0x1f3>
     d5e:	8a 46 09             	mov    0x9(%esi),%al
     d61:	b4 00                	mov    $0x0,%ah
     d63:	83 e0 30             	and    $0x30,%eax
     d66:	83 f8 20             	cmp    $0x20,%eax
     d69:	75 08                	jne    d73 <formatReal+0x1f3>
     d6b:	80 66 09 cf          	andb   $0xcf,0x9(%esi)
     d6f:	80 4e 09 00          	orb    $0x0,0x9(%esi)
     d73:	f6 46 09 04          	testb  $0x4,0x9(%esi)
     d77:	74 0a                	je     d83 <formatReal+0x203>
     d79:	80 7e f9 2d          	cmpb   $0x2d,-0x7(%esi)
     d7d:	74 04                	je     d83 <formatReal+0x203>
     d7f:	c6 46 f9 2b          	movb   $0x2b,-0x7(%esi)
     d83:	8a 46 09             	mov    0x9(%esi),%al
     d86:	b4 00                	mov    $0x0,%ah
     d88:	83 e0 30             	and    $0x30,%eax
     d8b:	0b c0                	or     %eax,%eax
     d8d:	74 07                	je     d96 <formatReal+0x216>
     d8f:	83 f8 10             	cmp    $0x10,%eax
     d92:	74 0a                	je     d9e <formatReal+0x21e>
     d94:	eb 10                	jmp    da6 <formatReal+0x226>
     d96:	8b 46 f2             	mov    -0xe(%esi),%eax
     d99:	89 46 f4             	mov    %eax,-0xc(%esi)
     d9c:	eb 08                	jmp    da6 <formatReal+0x226>
     d9e:	c7 46 f4 01 00 ff 4e 	movl   $0x4eff0001,-0xc(%esi)
     da5:	f2 8a 46 0a          	repnz mov 0xa(%esi),%al
     da9:	b4 00                	mov    $0x0,%ah
     dab:	89 46 f6             	mov    %eax,-0xa(%esi)
     dae:	f6 46 09 40          	testb  $0x40,0x9(%esi)
     db2:	74 05                	je     db9 <formatReal+0x239>
     db4:	b8 52 12 eb 03       	mov    $0x3eb1252,%eax
     db9:	b8 77 12 89 46       	mov    $0x46891277,%eax
     dbe:	be 9b db 2e a4       	mov    $0xa42edb9b,%esi
     dc3:	12 9b db 7e c0 9b    	adc    -0x643f8125(%ebx),%bl
     dc9:	9b db 6e 0c          	fldt   0xc(%esi)
     dcd:	9b db 7e ca          	fstpt  -0x36(%esi)
     dd1:	9b 9b db 6e c0       	fldt   -0x40(%esi)
     dd6:	9b db 7e de          	fstpt  -0x22(%esi)
     dda:	9b                   	fwait
     ddb:	be 51 11 83 7e       	mov    $0x7e831151,%esi
     de0:	f4                   	hlt    
     de1:	00 7f 2d             	add    %bh,0x2d(%edi)
     de4:	c6 04 30 46          	movb   $0x46,(%eax,%esi,1)
     de8:	83 7e f6 00          	cmpl   $0x0,-0xa(%esi)
     dec:	7e 1e                	jle    e0c <formatReal+0x28c>
     dee:	c6 04 2e 46          	movb   $0x46,(%esi,%ebp,1)
     df2:	eb 0e                	jmp    e02 <formatReal+0x282>
     df4:	8b 46 f6             	mov    -0xa(%esi),%eax
     df7:	ff 4e f6             	decl   -0xa(%esi)
     dfa:	0b c0                	or     %eax,%eax
     dfc:	7e 0e                	jle    e0c <formatReal+0x28c>
     dfe:	c6 04 30 46          	movb   $0x46,(%eax,%esi,1)
     e02:	8b 46 f4             	mov    -0xc(%esi),%eax
     e05:	ff 46 f4             	incl   -0xc(%esi)
     e08:	0b c0                	or     %eax,%eax
     e0a:	7c e8                	jl     df4 <formatReal+0x274>
     e0c:	c7 46 f4 00 00 8a 46 	movl   $0x468a0000,-0xc(%esi)
     e13:	08 b4 00 99 52 50 9b 	or     %dh,-0x64afad67(%eax,%eax,1)
     e1a:	db 46 b6             	fildl  -0x4a(%esi)
     e1d:	9b                   	fwait
     e1e:	83 c4 04             	add    $0x4,%esp
     e21:	9b db 6e ca          	fldt   -0x36(%esi)
     e25:	9b de c9             	fmulp  %st,%st(1)
     e28:	83 ec 0a             	sub    $0xa,%esp
     e2b:	9b db 7e b0          	fstpt  -0x50(%esi)
     e2f:	9b                   	fwait
     e30:	8d 46 d4             	lea    -0x2c(%esi),%eax
     e33:	50                   	push   %eax
     e34:	e8 dc 02 83 c4       	call   c4831115 <_end+0xc482e349>
     e39:	0c 9b                	or     $0x9b,%al
     e3b:	db 7e ca             	fstpt  -0x36(%esi)
     e3e:	9b                   	fwait
     e3f:	8a 46 08             	mov    0x8(%esi),%al
     e42:	b4 00                	mov    $0x0,%ah
     e44:	99                   	cltd   
     e45:	52                   	push   %edx
     e46:	50                   	push   %eax
     e47:	9b db 46 b6          	fildl  -0x4a(%esi)
     e4b:	9b                   	fwait
     e4c:	83 c4 04             	add    $0x4,%esp
     e4f:	9b db 6e de          	fldt   -0x22(%esi)
     e53:	9b de c9             	fmulp  %st,%st(1)
     e56:	9b db 7e de          	fstpt  -0x22(%esi)
     e5a:	9b 9b db 6e de       	fldt   -0x22(%esi)
     e5f:	9b db 6e ca          	fldt   -0x36(%esi)
     e63:	9b de d9             	fcompp 
     e66:	9b dd 3e             	fstsw  (%esi)
     e69:	49                   	dec    %ecx
     e6a:	11 9b 8a 26 4a 11    	adc    %ebx,0x114a268a(%ebx)
     e70:	9e                   	sahf   
     e71:	72 7d                	jb     ef0 <formatReal+0x370>
     e73:	9b db 6e ca          	fldt   -0x36(%esi)
     e77:	9b d9 e8             	fld1   
     e7a:	9b db 6e de          	fldt   -0x22(%esi)
     e7e:	9b de e9             	fsubrp %st,%st(1)
     e81:	9b de d9             	fcompp 
     e84:	9b dd 3e             	fstsw  (%esi)
     e87:	49                   	dec    %ecx
     e88:	11 9b 8a 26 4a 11    	adc    %ebx,0x114a268a(%ebx)
     e8e:	9e                   	sahf   
     e8f:	72 5f                	jb     ef0 <formatReal+0x370>
     e91:	83 7e f4 00          	cmpl   $0x0,-0xc(%esi)
     e95:	7f 06                	jg     e9d <formatReal+0x31d>
     e97:	83 7e f6 00          	cmpl   $0x0,-0xa(%esi)
     e9b:	7e 53                	jle    ef0 <formatReal+0x370>
     e9d:	9b db 6e d4          	fldt   -0x2c(%esi)
     ea1:	d9 3e                	fnstcw (%esi)
     ea3:	4b                   	dec    %ebx
     ea4:	11 9b a1 4b 11 0d    	adc    %ebx,0xd114ba1(%ebx)
     eaa:	00 0c a3             	add    %cl,(%ebx,%eiz,4)
     ead:	4d                   	dec    %ebp
     eae:	11 9b d9 2e 4d 11    	adc    %ebx,0x114d2ed9(%ebx)
     eb4:	9b 9b df 1e          	fistp  (%esi)
     eb8:	4f                   	dec    %edi
     eb9:	11 9b d9 2e 4b 11    	adc    %ebx,0x114b2ed9(%ebx)
     ebf:	9b                   	fwait
     ec0:	a1 4f 11 b4 00       	mov    0xb4114f,%eax
     ec5:	8b d8                	mov    %eax,%ebx
     ec7:	03 5e be             	add    -0x42(%esi),%ebx
     eca:	8a 07                	mov    (%edi),%al
     ecc:	88 04 46             	mov    %al,(%esi,%eax,2)
     ecf:	83 7e f4 00          	cmpl   $0x0,-0xc(%esi)
     ed3:	7e 15                	jle    eea <formatReal+0x36a>
     ed5:	ff 4e f4             	decl   -0xc(%esi)
     ed8:	74 03                	je     edd <formatReal+0x35d>
     eda:	e9 34 ff 83 7e       	jmp    7e840e13 <_end+0x7e83e047>
     edf:	f6 00 7e             	testb  $0x7e,(%eax)
     ee2:	0d c6 04 2e 46       	or     $0x462e04c6,%eax
     ee7:	e9 27 ff ff 4e       	jmp    4f000e13 <_end+0x4effe047>
     eec:	f6 e9                	imul   %cl
     eee:	21 ff                	and    %edi,%edi
     ef0:	9b db 2e             	fldt   (%esi)
     ef3:	ae                   	scas   %es:(%edi),%al
     ef4:	12 9b db 6e ca 9b    	adc    -0x64359125(%ebx),%bl
     efa:	de d9                	fcompp 
     efc:	9b dd 3e             	fstsw  (%esi)
     eff:	49                   	dec    %ecx
     f00:	11 9b 8a 26 4a 11    	adc    %ebx,0x114a268a(%ebx)
     f06:	9e                   	sahf   
     f07:	72 0f                	jb     f18 <formatReal+0x398>
     f09:	9b db 6e d4          	fldt   -0x2c(%esi)
     f0d:	9b d9 e8             	fld1   
     f10:	9b de c1             	faddp  %st,%st(1)
     f13:	9b db 7e d4          	fstpt  -0x2c(%esi)
     f17:	9b                   	fwait
     f18:	83 7e f4 00          	cmpl   $0x0,-0xc(%esi)
     f1c:	7e 4c                	jle    f6a <formatReal+0x3ea>
     f1e:	9b db 6e d4          	fldt   -0x2c(%esi)
     f22:	d9 3e                	fnstcw (%esi)
     f24:	4b                   	dec    %ebx
     f25:	11 9b a1 4b 11 0d    	adc    %ebx,0xd114ba1(%ebx)
     f2b:	00 0c a3             	add    %cl,(%ebx,%eiz,4)
     f2e:	4d                   	dec    %ebp
     f2f:	11 9b d9 2e 4d 11    	adc    %ebx,0x114d2ed9(%ebx)
     f35:	9b 9b df 1e          	fistp  (%esi)
     f39:	4f                   	dec    %edi
     f3a:	11 9b d9 2e 4b 11    	adc    %ebx,0x114b2ed9(%ebx)
     f40:	9b                   	fwait
     f41:	a1 4f 11 b4 00       	mov    0xb4114f,%eax
     f46:	8b d8                	mov    %eax,%ebx
     f48:	03 5e be             	add    -0x42(%esi),%ebx
     f4b:	8a 07                	mov    (%edi),%al
     f4d:	88 04 46             	mov    %al,(%esi,%eax,2)
     f50:	eb 04                	jmp    f56 <formatReal+0x3d6>
     f52:	c6 04 30 46          	movb   $0x46,(%eax,%esi,1)
     f56:	ff 4e f4             	decl   -0xc(%esi)
     f59:	7f f7                	jg     f52 <formatReal+0x3d2>
     f5b:	83 7e f6 00          	cmpl   $0x0,-0xa(%esi)
     f5f:	7f 03                	jg     f64 <formatReal+0x3e4>
     f61:	e9 c2 00 c6 04       	jmp    4c61028 <_end+0x4c5e25c>
     f66:	2e                   	cs
     f67:	46                   	inc    %esi
     f68:	eb 42                	jmp    fac <formatReal+0x42c>
     f6a:	8b 46 f6             	mov    -0xa(%esi),%eax
     f6d:	ff 4e f6             	decl   -0xa(%esi)
     f70:	0b c0                	or     %eax,%eax
     f72:	7e 38                	jle    fac <formatReal+0x42c>
     f74:	9b db 6e d4          	fldt   -0x2c(%esi)
     f78:	d9 3e                	fnstcw (%esi)
     f7a:	4b                   	dec    %ebx
     f7b:	11 9b a1 4b 11 0d    	adc    %ebx,0xd114ba1(%ebx)
     f81:	00 0c a3             	add    %cl,(%ebx,%eiz,4)
     f84:	4d                   	dec    %ebp
     f85:	11 9b d9 2e 4d 11    	adc    %ebx,0x114d2ed9(%ebx)
     f8b:	9b 9b df 1e          	fistp  (%esi)
     f8f:	4f                   	dec    %edi
     f90:	11 9b d9 2e 4b 11    	adc    %ebx,0x114b2ed9(%ebx)
     f96:	9b                   	fwait
     f97:	a1 4f 11 b4 00       	mov    0xb4114f,%eax
     f9c:	8b d8                	mov    %eax,%ebx
     f9e:	03 5e be             	add    -0x42(%esi),%ebx
     fa1:	8a 07                	mov    (%edi),%al
     fa3:	88 04 46             	mov    %al,(%esi,%eax,2)
     fa6:	eb 04                	jmp    fac <formatReal+0x42c>
     fa8:	c6 04 30 46          	movb   $0x46,(%eax,%esi,1)
     fac:	8b 46 f6             	mov    -0xa(%esi),%eax
     faf:	ff 4e f6             	decl   -0xa(%esi)
     fb2:	0b c0                	or     %eax,%eax
     fb4:	7f f2                	jg     fa8 <formatReal+0x428>
     fb6:	8a 46 09             	mov    0x9(%esi),%al
     fb9:	b4 00                	mov    $0x0,%ah
     fbb:	83 e0 30             	and    $0x30,%eax
     fbe:	83 f8 10             	cmp    $0x10,%eax
     fc1:	75 53                	jne    1016 <formatReal+0x496>
     fc3:	f6 46 09 40          	testb  $0x40,0x9(%esi)
     fc7:	74 04                	je     fcd <formatReal+0x44d>
     fc9:	b0 45                	mov    $0x45,%al
     fcb:	eb 02                	jmp    fcf <formatReal+0x44f>
     fcd:	b0 65                	mov    $0x65,%al
     fcf:	88 04 46             	mov    %al,(%esi,%eax,2)
     fd2:	56                   	push   %esi
     fd3:	ff 76 f2             	pushl  -0xe(%esi)
     fd6:	83 ec 01             	sub    $0x1,%esp
     fd9:	8b dc                	mov    %esp,%ebx
     fdb:	c6 07 00             	movb   $0x0,(%edi)
     fde:	f6 46 09 08          	testb  $0x8,0x9(%esi)
     fe2:	74 04                	je     fe8 <formatReal+0x468>
     fe4:	b0 00                	mov    $0x0,%al
     fe6:	eb 02                	jmp    fea <formatReal+0x46a>
     fe8:	b0 04                	mov    $0x4,%al
     fea:	8a 56 09             	mov    0x9(%esi),%dl
     fed:	80 e2 40             	and    $0x40,%dl
     ff0:	0a c2                	or     %dl,%al
     ff2:	83 ec 01             	sub    $0x1,%esp
     ff5:	8b dc                	mov    %esp,%ebx
     ff7:	88 07                	mov    %al,(%edi)
     ff9:	83 ec 01             	sub    $0x1,%esp
     ffc:	8b dc                	mov    %esp,%ebx
     ffe:	8a 46 08             	mov    0x8(%esi),%al
    1001:	88 07                	mov    %al,(%edi)
    1003:	8d 06                	lea    (%esi),%eax
    1005:	51                   	push   %ecx
    1006:	12 50 55             	adc    0x55(%eax),%dl
    1009:	e8 04 fa 83 c4       	call   c4840a12 <_end+0xc483dc46>
    100e:	0b a0 51 12 b4 00    	or     0xb41251(%eax),%esp
    1014:	03 f0                	add    %eax,%esi
    1016:	c6 04 00 c7          	movb   $0xc7,(%eax,%eax,1)
    101a:	46                   	inc    %esi
    101b:	fa                   	cli    
    101c:	51                   	push   %ecx
    101d:	11 8b c6 2d 51 11    	adc    %ecx,0x11512dc6(%ebx)
    1023:	88 46 fc             	mov    %al,-0x4(%esi)
    1026:	8a 46 0b             	mov    0xb(%esi),%al
    1029:	b4 00                	mov    $0x0,%ah
    102b:	8a 56 fc             	mov    -0x4(%esi),%dl
    102e:	b6 00                	mov    $0x0,%dh
    1030:	2b c2                	sub    %edx,%eax
    1032:	89 46 fe             	mov    %eax,-0x2(%esi)
    1035:	80 7e f9 00          	cmpb   $0x0,-0x7(%esi)
    1039:	74 03                	je     103e <formatReal+0x4be>
    103b:	ff 4e fe             	decl   -0x2(%esi)
    103e:	f6 46 09 01          	testb  $0x1,0x9(%esi)
    1042:	75 36                	jne    107a <formatReal+0x4fa>
    1044:	f6 46 09 02          	testb  $0x2,0x9(%esi)
    1048:	74 19                	je     1063 <formatReal+0x4e3>
    104a:	c6 46 fd 00          	movb   $0x0,-0x3(%esi)
    104e:	eb 07                	jmp    1057 <formatReal+0x4d7>
    1050:	c6 05 30 47 fe 46 fd 	movb   $0xfd,0x46fe4730
    1057:	8a 46 fd             	mov    -0x3(%esi),%al
    105a:	b4 00                	mov    $0x0,%ah
    105c:	3b 46 fe             	cmp    -0x2(%esi),%eax
    105f:	7c ef                	jl     1050 <formatReal+0x4d0>
    1061:	eb 17                	jmp    107a <formatReal+0x4fa>
    1063:	c6 46 fd 00          	movb   $0x0,-0x3(%esi)
    1067:	eb 07                	jmp    1070 <formatReal+0x4f0>
    1069:	c6 05 5f 47 fe 46 fd 	movb   $0xfd,0x46fe475f
    1070:	8a 46 fd             	mov    -0x3(%esi),%al
    1073:	b4 00                	mov    $0x0,%ah
    1075:	3b 46 fe             	cmp    -0x2(%esi),%eax
    1078:	7c ef                	jl     1069 <formatReal+0x4e9>
    107a:	80 7e f9 00          	cmpb   $0x0,-0x7(%esi)
    107e:	74 13                	je     1093 <formatReal+0x513>
    1080:	8a 46 f9             	mov    -0x7(%esi),%al
    1083:	88 05 47 eb 0b 8b    	mov    %al,0x8b0beb47
    1089:	5e                   	pop    %esi
    108a:	fa                   	cli    
    108b:	8a 07                	mov    (%edi),%al
    108d:	88 05 ff 46 fa 47    	mov    %al,0x47fa46ff
    1093:	8b 5e fa             	mov    -0x6(%esi),%ebx
    1096:	80 3f 00             	cmpb   $0x0,(%edi)
    1099:	75 ed                	jne    1088 <formatReal+0x508>
    109b:	f6 46 09 01          	testb  $0x1,0x9(%esi)
    109f:	74 17                	je     10b8 <formatReal+0x538>
    10a1:	c6 46 fd 00          	movb   $0x0,-0x3(%esi)
    10a5:	eb 07                	jmp    10ae <formatReal+0x52e>
    10a7:	c6 05 5f 47 fe 46 fd 	movb   $0xfd,0x46fe475f
    10ae:	8a 46 fd             	mov    -0x3(%esi),%al
    10b1:	b4 00                	mov    $0x0,%ah
    10b3:	3b 46 fe             	cmp    -0x2(%esi),%eax
    10b6:	7c ef                	jl     10a7 <formatReal+0x527>
    10b8:	c6 05 00 8b c7 2b 46 	movb   $0x46,0x2bc78b00
    10bf:	16                   	push   %ss
    10c0:	8b 76 06             	mov    0x6(%esi),%esi
    10c3:	88 04 5f             	mov    %al,(%edi,%ebx,2)
    10c6:	5e                   	pop    %esi
    10c7:	8b e5                	mov    %ebp,%esp
    10c9:	5d                   	pop    %ebp
    10ca:	c3                   	ret    

000010cb <_isnan>:
    10cb:	55                   	push   %ebp
    10cc:	8b ec                	mov    %esp,%ebp
    10ce:	9b db 6e 04          	fldt   0x4(%esi)
    10d2:	9b d9 e5             	fxam   
    10d5:	9b dd 3e             	fstsw  (%esi)
    10d8:	49                   	dec    %ecx
    10d9:	11 9b a1 49 11 25    	adc    %ebx,0x251149a1(%ebx)
    10df:	00 45 3d             	add    %al,0x3d(%ebp)
    10e2:	00 01                	add    %al,(%ecx)
    10e4:	75 02                	jne    10e8 <_isnan+0x1d>
    10e6:	b0 01                	mov    $0x1,%al
    10e8:	9b dd d8             	fstp   %st(0)
    10eb:	8b e5                	mov    %ebp,%esp
    10ed:	5d                   	pop    %ebp
    10ee:	c3                   	ret    

000010ef <_isinf>:
    10ef:	55                   	push   %ebp
    10f0:	8b ec                	mov    %esp,%ebp
    10f2:	9b db 6e 04          	fldt   0x4(%esi)
    10f6:	9b d9 e5             	fxam   
    10f9:	9b dd 3e             	fstsw  (%esi)
    10fc:	49                   	dec    %ecx
    10fd:	11 9b a1 49 11 25    	adc    %ebx,0x251149a1(%ebx)
    1103:	00 45 3d             	add    %al,0x3d(%ebp)
    1106:	00 05 75 02 b0 01    	add    %al,0x1b00275
    110c:	9b dd d8             	fstp   %st(0)
    110f:	8b e5                	mov    %ebp,%esp
    1111:	5d                   	pop    %ebp
    1112:	c3                   	ret    

00001113 <_split>:
    1113:	55                   	push   %ebp
    1114:	8b ec                	mov    %esp,%ebp
    1116:	83 ec 04             	sub    $0x4,%esp
    1119:	57                   	push   %edi
    111a:	9b db 6e 06          	fldt   0x6(%esi)
    111e:	8b 7e 04             	mov    0x4(%esi),%edi
    1121:	d9 7e fe             	fnstcw -0x2(%esi)
    1124:	8b 56 fe             	mov    -0x2(%esi),%edx
    1127:	80 ce 0c             	or     $0xc,%dh
    112a:	89 56 fc             	mov    %edx,-0x4(%esi)
    112d:	9b d9 6e fc          	fldcw  -0x4(%esi)
    1131:	9b d9 c0             	fld    %st(0)
    1134:	9b d9 fc             	frndint 
    1137:	9b d9 6e fe          	fldcw  -0x2(%esi)
    113b:	9b d9 c0             	fld    %st(0)
    113e:	9b db 3d 9b de e9 5f 	fstpt  0x5fe9de9b
    1145:	8b e5                	mov    %ebp,%esp
    1147:	5d                   	pop    %ebp
    1148:	c3                   	ret    

00001149 <FLAGS8087@>:
	...

0000114b <CNTRL8087OLD@>:
	...

0000114d <CNTRL8087NEW@>:
	...

0000114f <AUXIL8087@>:
	...

00001151 <temp>:
	...

00001251 <auxil>:
	...

00001252 <digitsU>:
    1252:	30 31                	xor    %dh,(%ecx)
    1254:	32 33                	xor    (%ebx),%dh
    1256:	34 35                	xor    $0x35,%al
    1258:	36                   	ss
    1259:	37                   	aaa    
    125a:	38 39                	cmp    %bh,(%ecx)
    125c:	41                   	inc    %ecx
    125d:	42                   	inc    %edx
    125e:	43                   	inc    %ebx
    125f:	44                   	inc    %esp
    1260:	45                   	inc    %ebp
    1261:	46                   	inc    %esi
    1262:	47                   	inc    %edi
    1263:	48                   	dec    %eax
    1264:	49                   	dec    %ecx
    1265:	4a                   	dec    %edx
    1266:	4b                   	dec    %ebx
    1267:	4c                   	dec    %esp
    1268:	4d                   	dec    %ebp
    1269:	4e                   	dec    %esi
    126a:	4f                   	dec    %edi
    126b:	50                   	push   %eax
    126c:	51                   	push   %ecx
    126d:	52                   	push   %edx
    126e:	53                   	push   %ebx
    126f:	54                   	push   %esp
    1270:	55                   	push   %ebp
    1271:	56                   	push   %esi
    1272:	57                   	push   %edi
    1273:	58                   	pop    %eax
    1274:	59                   	pop    %ecx
    1275:	5a                   	pop    %edx
	...

00001277 <digitsL>:
    1277:	30 31                	xor    %dh,(%ecx)
    1279:	32 33                	xor    (%ebx),%dh
    127b:	34 35                	xor    $0x35,%al
    127d:	36                   	ss
    127e:	37                   	aaa    
    127f:	38 39                	cmp    %bh,(%ecx)
    1281:	61                   	popa   
    1282:	62 63 64             	bound  %esp,0x64(%ebx)
    1285:	65                   	gs
    1286:	66 67 68 69 6a       	addr16 pushw $0x6a69
    128b:	6b 6c 6d 6e 6f       	imul   $0x6f,0x6e(%ebp,%ebp,2),%ebp
    1290:	70 71                	jo     1303 <ord+0x3>
    1292:	72 73                	jb     1307 <ord+0x7>
    1294:	74 75                	je     130b <ord+0xb>
    1296:	76 77                	jbe    130f <ord+0xf>
    1298:	78 79                	js     1313 <parseInteger+0x3>
    129a:	7a 00                	jp     129c <stringInf>

0000129c <stringInf>:
    129c:	49                   	dec    %ecx
    129d:	6e                   	outsb  %ds:(%esi),(%dx)
    129e:	66                   	data16
	...

000012a0 <stringNaN>:
    12a0:	4e                   	dec    %esi
    12a1:	61                   	popa   
    12a2:	4e                   	dec    %esi
	...

000012a4 <r2pm65>:
    12a4:	00 00                	add    %al,(%eax)
    12a6:	00 00                	add    %al,(%eax)
    12a8:	00 00                	add    %al,(%eax)
    12aa:	00 80 be 3f 00 00    	add    %al,0x3fbe(%eax)

000012ae <r2pm1>:
    12ae:	00 00                	add    %al,(%eax)
    12b0:	00 00                	add    %al,(%eax)
    12b2:	00 00                	add    %al,(%eax)
    12b4:	00 80 fe 3f 66 90    	add    %al,-0x6f99c002(%eax)
    12ba:	66 90                	xchg   %ax,%ax
    12bc:	66 90                	xchg   %ax,%ax
    12be:	66 90                	xchg   %ax,%ax

000012c0 <ln>:
    12c0:	55                   	push   %ebp
    12c1:	8b ec                	mov    %esp,%ebp
    12c3:	9b d9 e8             	fld1   
    12c6:	9b d9 ea             	fldl2e 
    12c9:	9b de f9             	fdivrp %st,%st(1)
    12cc:	9b db 6e 08          	fldt   0x8(%esi)
    12d0:	9b d9 f1             	fyl2x  
    12d3:	8b 76 06             	mov    0x6(%esi),%esi
    12d6:	9b db 3c 5d c3 66 90 	fstpt  0x669066c3(,%ebx,2)
    12dd:	66 
    12de:	90                   	nop
    12df:	90                   	nop

000012e0 <__new>:
    12e0:	55                   	push   %ebp
    12e1:	8b ec                	mov    %esp,%ebp
    12e3:	a1 f5 12 8b 76       	mov    0x768b12f5,%eax
    12e8:	06                   	push   %es
    12e9:	89 04 8b             	mov    %eax,(%ebx,%ecx,4)
    12ec:	4e                   	dec    %esi
    12ed:	08 03                	or     %al,(%ebx)
    12ef:	c1 a3 f5 12 5d c3 00 	shll   $0x0,-0x3ca2ed0b(%ebx)

000012f5 <heapptr>:
    12f5:	00 40 66             	add    %al,0x66(%eax)
    12f8:	90                   	nop
    12f9:	66 90                	xchg   %ax,%ax
    12fb:	66 90                	xchg   %ax,%ax
    12fd:	66 90                	xchg   %ax,%ax
    12ff:	90                   	nop

00001300 <ord>:
    1300:	55                   	push   %ebp
    1301:	8b ec                	mov    %esp,%ebp
    1303:	8a 46 08             	mov    0x8(%esi),%al
    1306:	32 e4                	xor    %ah,%ah
    1308:	8b 76 06             	mov    0x6(%esi),%esi
    130b:	89 04 5d c3 90 55 8b 	mov    %eax,-0x74aa6f3d(,%ebx,2)

00001310 <parseInteger>:
    1310:	55                   	push   %ebp
    1311:	8b ec                	mov    %esp,%ebp
    1313:	83 ec 06             	sub    $0x6,%esp
    1316:	56                   	push   %esi
    1317:	c7 46 fc 00 00 c6 46 	movl   $0x46c60000,-0x4(%esi)
    131e:	ff 00                	incl   (%eax)
    1320:	8b 76 0b             	mov    0xb(%esi),%esi
    1323:	8a 04 98             	mov    (%eax,%ebx,4),%al
    1326:	83 f8 0c             	cmp    $0xc,%eax
    1329:	74 1f                	je     134a <parseInteger+0x3a>
    132b:	7f 11                	jg     133e <parseInteger+0x2e>
    132d:	83 f8 09             	cmp    $0x9,%eax
    1330:	74 18                	je     134a <parseInteger+0x3a>
    1332:	83 f8 0a             	cmp    $0xa,%eax
    1335:	74 13                	je     134a <parseInteger+0x3a>
    1337:	83 f8 0b             	cmp    $0xb,%eax
    133a:	74 0e                	je     134a <parseInteger+0x3a>
    133c:	eb 0f                	jmp    134d <parseInteger+0x3d>
    133e:	83 f8 0d             	cmp    $0xd,%eax
    1341:	74 07                	je     134a <parseInteger+0x3a>
    1343:	83 f8 20             	cmp    $0x20,%eax
    1346:	74 02                	je     134a <parseInteger+0x3a>
    1348:	eb 03                	jmp    134d <parseInteger+0x3d>
    134a:	46                   	inc    %esi
    134b:	eb d6                	jmp    1323 <parseInteger+0x13>
    134d:	8a 04 98             	mov    (%eax,%ebx,4),%al
    1350:	83 f8 2b             	cmp    $0x2b,%eax
    1353:	74 0b                	je     1360 <parseInteger+0x50>
    1355:	83 f8 2d             	cmp    $0x2d,%eax
    1358:	74 02                	je     135c <parseInteger+0x4c>
    135a:	eb 05                	jmp    1361 <parseInteger+0x51>
    135c:	c6 46 ff 01          	movb   $0x1,-0x1(%esi)
    1360:	46                   	inc    %esi
    1361:	8a 04 88             	mov    (%eax,%ecx,4),%al
    1364:	46                   	inc    %esi
    1365:	fb                   	sti    
    1366:	80 7e fb 30          	cmpb   $0x30,-0x5(%esi)
    136a:	72 0c                	jb     1378 <parseInteger+0x68>
    136c:	80 7e fb 39          	cmpb   $0x39,-0x5(%esi)
    1370:	77 06                	ja     1378 <parseInteger+0x68>
    1372:	80 6e fb 30          	subb   $0x30,-0x5(%esi)
    1376:	eb 1a                	jmp    1392 <parseInteger+0x82>
    1378:	80 4e fb 20          	orb    $0x20,-0x5(%esi)
    137c:	80 7e fb 61          	cmpb   $0x61,-0x5(%esi)
    1380:	72 24                	jb     13a6 <parseInteger+0x96>
    1382:	80 6e fb 61          	subb   $0x61,-0x5(%esi)
    1386:	80 46 fb 0a          	addb   $0xa,-0x5(%esi)
    138a:	8a 46 fb             	mov    -0x5(%esi),%al
    138d:	3a 46 08             	cmp    0x8(%esi),%al
    1390:	77 14                	ja     13a6 <parseInteger+0x96>
    1392:	8a 46 08             	mov    0x8(%esi),%al
    1395:	b4 00                	mov    $0x0,%ah
    1397:	f7 66 fc             	mull   -0x4(%esi)
    139a:	8a 56 fb             	mov    -0x5(%esi),%dl
    139d:	b6 00                	mov    $0x0,%dh
    139f:	03 c2                	add    %edx,%eax
    13a1:	89 46 fc             	mov    %eax,-0x4(%esi)
    13a4:	eb ba                	jmp    1360 <parseInteger+0x50>
    13a6:	80 7e ff 00          	cmpb   $0x0,-0x1(%esi)
    13aa:	74 08                	je     13b4 <parseInteger+0xa4>
    13ac:	8b 46 fc             	mov    -0x4(%esi),%eax
    13af:	f7 d8                	neg    %eax
    13b1:	89 46 fc             	mov    %eax,-0x4(%esi)
    13b4:	8b 46 fc             	mov    -0x4(%esi),%eax
    13b7:	8b 5e 09             	mov    0x9(%esi),%ebx
    13ba:	89 07                	mov    %eax,(%edi)
    13bc:	8b c6                	mov    %esi,%eax
    13be:	2b 46 0b             	sub    0xb(%esi),%eax
    13c1:	88 46 06             	mov    %al,0x6(%esi)
    13c4:	5e                   	pop    %esi
    13c5:	8b e5                	mov    %ebp,%esp
    13c7:	5d                   	pop    %ebp
    13c8:	c3                   	ret    
    13c9:	66 90                	xchg   %ax,%ax
    13cb:	66 90                	xchg   %ax,%ax
    13cd:	66 90                	xchg   %ax,%ax
    13cf:	90                   	nop

000013d0 <parseReal>:
    13d0:	55                   	push   %ebp
    13d1:	8b ec                	mov    %esp,%ebp
    13d3:	83 ec 18             	sub    $0x18,%esp
    13d6:	56                   	push   %esi
    13d7:	9b d9 ee             	fldz   
    13da:	9b db 7e f4          	fstpt  -0xc(%esi)
    13de:	9b                   	fwait
    13df:	c6 46 ff 00          	movb   $0x0,-0x1(%esi)
    13e3:	8b 76 0b             	mov    0xb(%esi),%esi
    13e6:	8a 04 98             	mov    (%eax,%ebx,4),%al
    13e9:	83 f8 0c             	cmp    $0xc,%eax
    13ec:	74 1f                	je     140d <parseReal+0x3d>
    13ee:	7f 11                	jg     1401 <parseReal+0x31>
    13f0:	83 f8 09             	cmp    $0x9,%eax
    13f3:	74 18                	je     140d <parseReal+0x3d>
    13f5:	83 f8 0a             	cmp    $0xa,%eax
    13f8:	74 13                	je     140d <parseReal+0x3d>
    13fa:	83 f8 0b             	cmp    $0xb,%eax
    13fd:	74 0e                	je     140d <parseReal+0x3d>
    13ff:	eb 0f                	jmp    1410 <parseReal+0x40>
    1401:	83 f8 0d             	cmp    $0xd,%eax
    1404:	74 07                	je     140d <parseReal+0x3d>
    1406:	83 f8 20             	cmp    $0x20,%eax
    1409:	74 02                	je     140d <parseReal+0x3d>
    140b:	eb 03                	jmp    1410 <parseReal+0x40>
    140d:	46                   	inc    %esi
    140e:	eb d6                	jmp    13e6 <parseReal+0x16>
    1410:	8a 04 98             	mov    (%eax,%ebx,4),%al
    1413:	83 f8 2b             	cmp    $0x2b,%eax
    1416:	74 0b                	je     1423 <parseReal+0x53>
    1418:	83 f8 2d             	cmp    $0x2d,%eax
    141b:	74 02                	je     141f <parseReal+0x4f>
    141d:	eb 05                	jmp    1424 <parseReal+0x54>
    141f:	c6 46 ff 01          	movb   $0x1,-0x1(%esi)
    1423:	46                   	inc    %esi
    1424:	8a 04 88             	mov    (%eax,%ecx,4),%al
    1427:	46                   	inc    %esi
    1428:	f3 80 7e f3 30       	repz cmpb $0x30,-0xd(%esi)
    142d:	72 0c                	jb     143b <parseReal+0x6b>
    142f:	80 7e f3 39          	cmpb   $0x39,-0xd(%esi)
    1433:	77 06                	ja     143b <parseReal+0x6b>
    1435:	80 6e f3 30          	subb   $0x30,-0xd(%esi)
    1439:	eb 1a                	jmp    1455 <parseReal+0x85>
    143b:	80 4e f3 20          	orb    $0x20,-0xd(%esi)
    143f:	80 7e f3 61          	cmpb   $0x61,-0xd(%esi)
    1443:	72 41                	jb     1486 <parseReal+0xb6>
    1445:	80 6e f3 61          	subb   $0x61,-0xd(%esi)
    1449:	80 46 f3 0a          	addb   $0xa,-0xd(%esi)
    144d:	8a 46 f3             	mov    -0xd(%esi),%al
    1450:	3a 46 08             	cmp    0x8(%esi),%al
    1453:	77 31                	ja     1486 <parseReal+0xb6>
    1455:	8a 46 08             	mov    0x8(%esi),%al
    1458:	b4 00                	mov    $0x0,%ah
    145a:	99                   	cltd   
    145b:	52                   	push   %edx
    145c:	50                   	push   %eax
    145d:	9b db 46 e2          	fildl  -0x1e(%esi)
    1461:	9b                   	fwait
    1462:	83 c4 04             	add    $0x4,%esp
    1465:	9b db 6e f4          	fldt   -0xc(%esi)
    1469:	9b de c9             	fmulp  %st,%st(1)
    146c:	8a 46 f3             	mov    -0xd(%esi),%al
    146f:	b4 00                	mov    $0x0,%ah
    1471:	99                   	cltd   
    1472:	52                   	push   %edx
    1473:	50                   	push   %eax
    1474:	9b db 46 e2          	fildl  -0x1e(%esi)
    1478:	9b                   	fwait
    1479:	83 c4 04             	add    $0x4,%esp
    147c:	9b de c1             	faddp  %st,%st(1)
    147f:	9b db 7e f4          	fstpt  -0xc(%esi)
    1483:	9b                   	fwait
    1484:	eb 9d                	jmp    1423 <parseReal+0x53>
    1486:	80 3c 2e 74          	cmpb   $0x74,(%esi,%ebp,1)
    148a:	02 eb                	add    %bl,%ch
    148c:	7b 9b                	jnp    1429 <parseReal+0x59>
    148e:	d9 e8                	fld1   
    1490:	9b db 7e ea          	fstpt  -0x16(%esi)
    1494:	9b                   	fwait
    1495:	46                   	inc    %esi
    1496:	8a 04 88             	mov    (%eax,%ecx,4),%al
    1499:	46                   	inc    %esi
    149a:	e9 80 7e e9 30       	jmp    30e9931f <_end+0x30e96553>
    149f:	72 0c                	jb     14ad <parseReal+0xdd>
    14a1:	80 7e e9 39          	cmpb   $0x39,-0x17(%esi)
    14a5:	77 06                	ja     14ad <parseReal+0xdd>
    14a7:	80 6e e9 30          	subb   $0x30,-0x17(%esi)
    14ab:	eb 1a                	jmp    14c7 <parseReal+0xf7>
    14ad:	80 4e e9 20          	orb    $0x20,-0x17(%esi)
    14b1:	80 7e e9 61          	cmpb   $0x61,-0x17(%esi)
    14b5:	72 51                	jb     1508 <parseReal+0x138>
    14b7:	80 6e e9 61          	subb   $0x61,-0x17(%esi)
    14bb:	80 46 e9 0a          	addb   $0xa,-0x17(%esi)
    14bf:	8a 46 e9             	mov    -0x17(%esi),%al
    14c2:	3a 46 08             	cmp    0x8(%esi),%al
    14c5:	77 41                	ja     1508 <parseReal+0x138>
    14c7:	8a 46 08             	mov    0x8(%esi),%al
    14ca:	b4 00                	mov    $0x0,%ah
    14cc:	99                   	cltd   
    14cd:	52                   	push   %edx
    14ce:	50                   	push   %eax
    14cf:	9b db 46 e2          	fildl  -0x1e(%esi)
    14d3:	9b                   	fwait
    14d4:	83 c4 04             	add    $0x4,%esp
    14d7:	9b db 6e ea          	fldt   -0x16(%esi)
    14db:	9b de f1             	fdivp  %st,%st(1)
    14de:	9b db 7e ea          	fstpt  -0x16(%esi)
    14e2:	9b                   	fwait
    14e3:	8a 46 e9             	mov    -0x17(%esi),%al
    14e6:	b4 00                	mov    $0x0,%ah
    14e8:	99                   	cltd   
    14e9:	52                   	push   %edx
    14ea:	50                   	push   %eax
    14eb:	9b db 46 e2          	fildl  -0x1e(%esi)
    14ef:	9b                   	fwait
    14f0:	83 c4 04             	add    $0x4,%esp
    14f3:	9b db 6e ea          	fldt   -0x16(%esi)
    14f7:	9b de c9             	fmulp  %st,%st(1)
    14fa:	9b db 6e f4          	fldt   -0xc(%esi)
    14fe:	9b de c1             	faddp  %st,%st(1)
    1501:	9b db 7e f4          	fstpt  -0xc(%esi)
    1505:	9b                   	fwait
    1506:	eb 8d                	jmp    1495 <parseReal+0xc5>
    1508:	80 3c 65 74 08 80 3c 	cmpb   $0x45,0x3c800874(,%eiz,2)
    150f:	45 
    1510:	74 03                	je     1515 <parseReal+0x145>
    1512:	e9 8b 00 8a 46       	jmp    468a15a2 <_end+0x4689e7d6>
    1517:	08 32                	or     %dh,(%edx)
    1519:	e4 33                	in     $0x33,%al
    151b:	d2                   	(bad)  
    151c:	33 c9                	xor    %ecx,%ecx
    151e:	51                   	push   %ecx
    151f:	51                   	push   %ecx
    1520:	52                   	push   %edx
    1521:	50                   	push   %eax
    1522:	9b df 6e de          	fildll -0x22(%esi)
    1526:	9b                   	fwait
    1527:	83 c4 08             	add    $0x8,%esp
    152a:	9b db 7e ea          	fstpt  -0x16(%esi)
    152e:	9b                   	fwait
    152f:	46                   	inc    %esi
    1530:	56                   	push   %esi
    1531:	8d 46 e8             	lea    -0x18(%esi),%eax
    1534:	50                   	push   %eax
    1535:	83 ec 01             	sub    $0x1,%esp
    1538:	8b dc                	mov    %esp,%ebx
    153a:	8a 46 08             	mov    0x8(%esi),%al
    153d:	88 07                	mov    %al,(%edi)
    153f:	8d 06                	lea    (%esi),%eax
    1541:	c7                   	(bad)  
    1542:	15 55 e8 c9 fd       	adc    $0xfdc9e855,%eax
    1547:	83 c4 09             	add    $0x9,%esp
    154a:	a0 c7 15 b4 00       	mov    0xb415c7,%al
    154f:	03 f0                	add    %eax,%esi
    1551:	83 7e e8 00          	cmpl   $0x0,-0x18(%esi)
    1555:	7d 43                	jge    159a <parseReal+0x1ca>
    1557:	8b 46 e8             	mov    -0x18(%esi),%eax
    155a:	f7 d8                	neg    %eax
    155c:	89 46 e8             	mov    %eax,-0x18(%esi)
    155f:	9b d9 e8             	fld1   
    1562:	9b db 6e ea          	fldt   -0x16(%esi)
    1566:	9b de f9             	fdivrp %st,%st(1)
    1569:	9b db 7e ea          	fstpt  -0x16(%esi)
    156d:	9b                   	fwait
    156e:	eb 2a                	jmp    159a <parseReal+0x1ca>
    1570:	f7 46 e8 01 00 7e 10 	testl  $0x107e0001,-0x18(%esi)
    1577:	9b db 6e f4          	fldt   -0xc(%esi)
    157b:	9b db 6e ea          	fldt   -0x16(%esi)
    157f:	9b de c9             	fmulp  %st,%st(1)
    1582:	9b db 7e f4          	fstpt  -0xc(%esi)
    1586:	9b                   	fwait
    1587:	d1 7e e8             	sarl   -0x18(%esi)
    158a:	9b db 6e ea          	fldt   -0x16(%esi)
    158e:	9b db 6e ea          	fldt   -0x16(%esi)
    1592:	9b de c9             	fmulp  %st,%st(1)
    1595:	9b db 7e ea          	fstpt  -0x16(%esi)
    1599:	9b                   	fwait
    159a:	83 7e e8 00          	cmpl   $0x0,-0x18(%esi)
    159e:	7f d0                	jg     1570 <parseReal+0x1a0>
    15a0:	80 7e ff 00          	cmpb   $0x0,-0x1(%esi)
    15a4:	74 0c                	je     15b2 <parseReal+0x1e2>
    15a6:	9b db 6e f4          	fldt   -0xc(%esi)
    15aa:	9b d9 e0             	fchs   
    15ad:	9b db 7e f4          	fstpt  -0xc(%esi)
    15b1:	9b 9b db 6e f4       	fldt   -0xc(%esi)
    15b6:	8b 5e 09             	mov    0x9(%esi),%ebx
    15b9:	9b db 3f             	fstpt  (%edi)
    15bc:	9b                   	fwait
    15bd:	8b c6                	mov    %esi,%eax
    15bf:	2b 46 0b             	sub    0xb(%esi),%eax
    15c2:	5e                   	pop    %esi
    15c3:	8b e5                	mov    %ebp,%esp
    15c5:	5d                   	pop    %ebp
    15c6:	c3                   	ret    

000015c7 <auxil>:
    15c7:	00 66 90             	add    %ah,-0x70(%esi)
    15ca:	66 90                	xchg   %ax,%ax
    15cc:	66 90                	xchg   %ax,%ax
    15ce:	66 90                	xchg   %ax,%ax

000015d0 <pi>:
    15d0:	55                   	push   %ebp
    15d1:	8b ec                	mov    %esp,%ebp
    15d3:	9b d9 eb             	fldpi  
    15d6:	8b 76 06             	mov    0x6(%esi),%esi
    15d9:	9b db 3c 5d c3 66 90 	fstpt  0x559066c3(,%ebx,2)
    15e0:	55 

000015e0 <writeBoolean>:
    15e0:	55                   	push   %ebp
    15e1:	8b ec                	mov    %esp,%ebp
    15e3:	8a 46 08             	mov    0x8(%esi),%al
    15e6:	0a c0                	or     %al,%al
    15e8:	75 0a                	jne    15f4 <writeBoolean+0x14>
    15ea:	8d 16                	lea    (%esi),%edx
    15ec:	fe                   	(bad)  
    15ed:	15 b4 09 cd 21       	adc    $0x21cd09b4,%eax
    15f2:	eb 08                	jmp    15fc <writeBoolean+0x1c>
    15f4:	8d 16                	lea    (%esi),%edx
    15f6:	04 16                	add    $0x16,%al
    15f8:	b4 09                	mov    $0x9,%ah
    15fa:	cd 21                	int    $0x21
    15fc:	5d                   	pop    %ebp
    15fd:	c3                   	ret    

000015fe <str_false>:
    15fe:	66 61                	popaw  
    1600:	6c                   	insb   (%dx),%es:(%edi)
    1601:	73 65                	jae    1668 <buffer+0x2>
    1603:	24 74                	and    $0x74,%al

00001604 <str_true>:
    1604:	74 72                	je     1678 <writeReal+0x8>
    1606:	75 65                	jne    166d <buffer+0x7>
    1608:	24 66                	and    $0x66,%al
    160a:	90                   	nop
    160b:	66 90                	xchg   %ax,%ax
    160d:	66 90                	xchg   %ax,%ax
    160f:	90                   	nop

00001610 <writeChar>:
    1610:	55                   	push   %ebp
    1611:	8b ec                	mov    %esp,%ebp
    1613:	8a 56 08             	mov    0x8(%esi),%dl
    1616:	0a d2                	or     %dl,%dl
    1618:	74 11                	je     162b <writeChar+0x1b>
    161a:	80 fa 0a             	cmp    $0xa,%dl
    161d:	75 08                	jne    1627 <writeChar+0x17>
    161f:	52                   	push   %edx
    1620:	b2 0d                	mov    $0xd,%dl
    1622:	b4 02                	mov    $0x2,%ah
    1624:	cd 21                	int    $0x21
    1626:	5a                   	pop    %edx
    1627:	b4 02                	mov    $0x2,%ah
    1629:	cd 21                	int    $0x21
    162b:	5d                   	pop    %ebp
    162c:	c3                   	ret    
    162d:	66 90                	xchg   %ax,%ax
    162f:	90                   	nop

00001630 <writeInteger>:
    1630:	55                   	push   %ebp
    1631:	8b ec                	mov    %esp,%ebp
    1633:	83 ec 01             	sub    $0x1,%esp
    1636:	b8 66 16 50 ff       	mov    $0xff501666,%eax
    163b:	76 08                	jbe    1645 <writeInteger+0x15>
    163d:	b8 00 00 50 83       	mov    $0x83500000,%eax
    1642:	ec                   	in     (%dx),%al
    1643:	01 8b f4 c6 04 0a    	add    %ecx,0xa04c6f4(%ebx)
    1649:	8d 46 ff             	lea    -0x1(%esi),%eax
    164c:	50                   	push   %eax
    164d:	55                   	push   %ebp
    164e:	e8 bf f3 83 c4       	call   c4840a12 <_end+0xc483dc46>
    1653:	0b b8 66 16 50 83    	or     -0x7cafe99a(%eax),%edi
    1659:	ec                   	in     (%dx),%al
    165a:	02 55 e8             	add    -0x18(%ebp),%dl
    165d:	b1 00                	mov    $0x0,%cl
    165f:	83 c4 06             	add    $0x6,%esp
    1662:	8b e5                	mov    %ebp,%esp
    1664:	5d                   	pop    %ebp
    1665:	c3                   	ret    

00001666 <buffer>:
    1666:	00 00                	add    %al,(%eax)
    1668:	00 00                	add    %al,(%eax)
    166a:	00 00                	add    %al,(%eax)
    166c:	66 90                	xchg   %ax,%ax
    166e:	66 90                	xchg   %ax,%ax

00001670 <writeReal>:
    1670:	55                   	push   %ebp
    1671:	8b ec                	mov    %esp,%ebp
    1673:	83 ec 01             	sub    $0x1,%esp
    1676:	b8 c3 16 50 9b       	mov    $0x9b5016c3,%eax
    167b:	db 6e 08             	fldt   0x8(%esi)
    167e:	83 ec 0a             	sub    $0xa,%esp
    1681:	8b f4                	mov    %esp,%esi
    1683:	9b db 3c 83          	fstpt  (%ebx,%eax,4)
    1687:	ec                   	in     (%dx),%al
    1688:	01 8b f4 c6 04 00    	add    %ecx,0x4c6f4(%ebx)
    168e:	83 ec 01             	sub    $0x1,%esp
    1691:	8b f4                	mov    %esp,%esi
    1693:	c6 04 06 83          	movb   $0x83,(%esi,%eax,1)
    1697:	ec                   	in     (%dx),%al
    1698:	01 8b f4 c6 04 20    	add    %ecx,0x2004c6f4(%ebx)
    169e:	83 ec 01             	sub    $0x1,%esp
    16a1:	8b f4                	mov    %esp,%esi
    16a3:	c6 04 0a 8d          	movb   $0x8d,(%edx,%ecx,1)
    16a7:	46                   	inc    %esi
    16a8:	ff 50 55             	call   *0x55(%eax)
    16ab:	e8 d2 f4 83 c4       	call   c4840b82 <_end+0xc483ddb6>
    16b0:	14 b8                	adc    $0xb8,%al
    16b2:	c3                   	ret    
    16b3:	16                   	push   %ss
    16b4:	50                   	push   %eax
    16b5:	83 ec 02             	sub    $0x2,%esp
    16b8:	55                   	push   %ebp
    16b9:	e8 54 00 83 c4       	call   c4831712 <_end+0xc482e946>
    16be:	06                   	push   %es
    16bf:	8b e5                	mov    %ebp,%esp
    16c1:	5d                   	pop    %ebp
    16c2:	c3                   	ret    

000016c3 <buffer>:
	...
    1703:	66 90                	xchg   %ax,%ax
    1705:	66 90                	xchg   %ax,%ax
    1707:	66 90                	xchg   %ax,%ax
    1709:	66 90                	xchg   %ax,%ax
    170b:	66 90                	xchg   %ax,%ax
    170d:	66 90                	xchg   %ax,%ax
    170f:	90                   	nop

00001710 <writeString>:
    1710:	55                   	push   %ebp
    1711:	8b ec                	mov    %esp,%ebp
    1713:	8b 76 08             	mov    0x8(%esi),%esi
    1716:	8a 14 0a             	mov    (%edx,%ecx,1),%dl
    1719:	d2                   	(bad)  
    171a:	74 14                	je     1730 <writeString+0x20>
    171c:	80 fa 0a             	cmp    $0xa,%dl
    171f:	75 08                	jne    1729 <writeString+0x19>
    1721:	52                   	push   %edx
    1722:	b2 0d                	mov    $0xd,%dl
    1724:	b4 02                	mov    $0x2,%ah
    1726:	cd 21                	int    $0x21
    1728:	5a                   	pop    %edx
    1729:	b4 02                	mov    $0x2,%ah
    172b:	cd 21                	int    $0x21
    172d:	46                   	inc    %esi
    172e:	eb e6                	jmp    1716 <writeString+0x6>
    1730:	5d                   	pop    %ebp
    1731:	c3                   	ret    
    1732:	66 90                	xchg   %ax,%ax
    1734:	66 90                	xchg   %ax,%ax
    1736:	66 90                	xchg   %ax,%ax
    1738:	66 90                	xchg   %ax,%ax
    173a:	66 90                	xchg   %ax,%ax
    173c:	66 90                	xchg   %ax,%ax
    173e:	66 90                	xchg   %ax,%ax

00001740 <readBoolean>:
    1740:	55                   	push   %ebp
    1741:	8b ec                	mov    %esp,%ebp
    1743:	b8 00 01 50 8d       	mov    $0x8d500100,%eax
    1748:	36                   	ss
    1749:	7a 17                	jp     1762 <readBoolean+0x22>
    174b:	56                   	push   %esi
    174c:	83 ec 04             	sub    $0x4,%esp
    174f:	e8 ce 03 83 c4       	call   c4831b22 <_end+0xc482ed56>
    1754:	06                   	push   %es
    1755:	8d 36                	lea    (%esi),%esi
    1757:	7a 17                	jp     1770 <readBoolean+0x30>
    1759:	33 c0                	xor    %eax,%eax
    175b:	8a 0c 46             	mov    (%esi,%eax,2),%cl
    175e:	80 f9 20             	cmp    $0x20,%cl
    1761:	74 f8                	je     175b <readBoolean+0x1b>
    1763:	80 f9 09             	cmp    $0x9,%cl
    1766:	74 f3                	je     175b <readBoolean+0x1b>
    1768:	80 c9 20             	or     $0x20,%cl
    176b:	80 f9 74             	cmp    $0x74,%cl
    176e:	75 03                	jne    1773 <readBoolean+0x33>
    1770:	b8 01 00 8b 76       	mov    $0x768b0001,%eax
    1775:	06                   	push   %es
    1776:	88 04 5d c3 00 00 00 	mov    %al,0xc3(,%ebx,2)

0000177a <inpstr>:
	...
    187a:	66 90                	xchg   %ax,%ax
    187c:	66 90                	xchg   %ax,%ax
    187e:	66 90                	xchg   %ax,%ax

00001880 <readChar>:
    1880:	55                   	push   %ebp
    1881:	8b ec                	mov    %esp,%ebp
    1883:	8b 76 06             	mov    0x6(%esi),%esi
    1886:	b4 08                	mov    $0x8,%ah
    1888:	cd 21                	int    $0x21
    188a:	88 04 8a             	mov    %al,(%edx,%ecx,4)
    188d:	d0                   	(bad)  
    188e:	b4 02                	mov    $0x2,%ah
    1890:	cd 21                	int    $0x21
    1892:	5d                   	pop    %ebp
    1893:	c3                   	ret    
    1894:	66 90                	xchg   %ax,%ax
    1896:	66 90                	xchg   %ax,%ax
    1898:	66 90                	xchg   %ax,%ax
    189a:	66 90                	xchg   %ax,%ax
    189c:	66 90                	xchg   %ax,%ax
    189e:	66 90                	xchg   %ax,%ax

000018a0 <readInteger>:
    18a0:	55                   	push   %ebp
    18a1:	8b ec                	mov    %esp,%ebp
    18a3:	83 ec 01             	sub    $0x1,%esp
    18a6:	b8 00 01 50 8d       	mov    $0x8d500100,%eax
    18ab:	36                   	ss
    18ac:	d6                   	(bad)  
    18ad:	18 56 83             	sbb    %dl,-0x7d(%esi)
    18b0:	ec                   	in     (%dx),%al
    18b1:	04 e8                	add    $0xe8,%al
    18b3:	6b 02 83             	imul   $0xffffff83,(%edx),%eax
    18b6:	c4 08                	les    (%eax),%ecx
    18b8:	b8 d6 18 50 ff       	mov    $0xff5018d6,%eax
    18bd:	76 06                	jbe    18c5 <readInteger+0x25>
    18bf:	83 ec 01             	sub    $0x1,%esp
    18c2:	8b f4                	mov    %esp,%esi
    18c4:	c6 04 0a 8d          	movb   $0x8d,(%edx,%ecx,1)
    18c8:	46                   	inc    %esi
    18c9:	ff 50 55             	call   *0x55(%eax)
    18cc:	e8 41 fa 83 c4       	call   c4841312 <_end+0xc483e546>
    18d1:	09 8b e5 5d c3 00    	or     %ecx,0xc35de5(%ebx)

000018d6 <buffer>:
	...
    19d6:	66 90                	xchg   %ax,%ax
    19d8:	66 90                	xchg   %ax,%ax
    19da:	66 90                	xchg   %ax,%ax
    19dc:	66 90                	xchg   %ax,%ax
    19de:	66 90                	xchg   %ax,%ax

000019e0 <readReal>:
    19e0:	55                   	push   %ebp
    19e1:	8b ec                	mov    %esp,%ebp
    19e3:	83 ec 01             	sub    $0x1,%esp
    19e6:	b8 00 01 50 8d       	mov    $0x8d500100,%eax
    19eb:	36                   	ss
    19ec:	16                   	push   %ss
    19ed:	1a 56 83             	sbb    -0x7d(%esi),%dl
    19f0:	ec                   	in     (%dx),%al
    19f1:	04 e8                	add    $0xe8,%al
    19f3:	2b 01                	sub    (%ecx),%eax
    19f5:	83 c4 08             	add    $0x8,%esp
    19f8:	b8 16 1a 50 ff       	mov    $0xff501a16,%eax
    19fd:	76 06                	jbe    1a05 <readReal+0x25>
    19ff:	83 ec 01             	sub    $0x1,%esp
    1a02:	8b f4                	mov    %esp,%esi
    1a04:	c6 04 0a 8d          	movb   $0x8d,(%edx,%ecx,1)
    1a08:	46                   	inc    %esi
    1a09:	fe                   	(bad)  
    1a0a:	50                   	push   %eax
    1a0b:	55                   	push   %ebp
    1a0c:	e8 c1 f9 83 c4       	call   c48413d2 <_end+0xc483e606>
    1a11:	09 8b e5 5d c3 00    	or     %ecx,0xc35de5(%ebx)

00001a16 <buffer>:
	...
    1b16:	66 90                	xchg   %ax,%ax
    1b18:	66 90                	xchg   %ax,%ax
    1b1a:	66 90                	xchg   %ax,%ax
    1b1c:	66 90                	xchg   %ax,%ax
    1b1e:	66 90                	xchg   %ax,%ax

00001b20 <readString>:
    1b20:	55                   	push   %ebp
    1b21:	8b ec                	mov    %esp,%ebp
    1b23:	33 c9                	xor    %ecx,%ecx
    1b25:	8b 76 08             	mov    0x8(%esi),%esi
    1b28:	b4 08                	mov    $0x8,%ah
    1b2a:	cd 21                	int    $0x21
    1b2c:	3c 08                	cmp    $0x8,%al
    1b2e:	75 22                	jne    1b52 <readString+0x32>
    1b30:	0b c9                	or     %ecx,%ecx
    1b32:	74 16                	je     1b4a <readString+0x2a>
    1b34:	49                   	dec    %ecx
    1b35:	4e                   	dec    %esi
    1b36:	b2 08                	mov    $0x8,%dl
    1b38:	b4 02                	mov    $0x2,%ah
    1b3a:	cd 21                	int    $0x21
    1b3c:	b2 20                	mov    $0x20,%dl
    1b3e:	b4 02                	mov    $0x2,%ah
    1b40:	cd 21                	int    $0x21
    1b42:	b2 08                	mov    $0x8,%dl
    1b44:	b4 02                	mov    $0x2,%ah
    1b46:	cd 21                	int    $0x21
    1b48:	eb de                	jmp    1b28 <readString+0x8>
    1b4a:	b2 07                	mov    $0x7,%dl
    1b4c:	b4 02                	mov    $0x2,%ah
    1b4e:	cd 21                	int    $0x21
    1b50:	eb d6                	jmp    1b28 <readString+0x8>
    1b52:	0a c0                	or     %al,%al
    1b54:	75 0c                	jne    1b62 <readString+0x42>
    1b56:	b4 08                	mov    $0x8,%ah
    1b58:	cd 21                	int    $0x21
    1b5a:	eb cc                	jmp    1b28 <readString+0x8>
    1b5c:	b2 07                	mov    $0x7,%dl
    1b5e:	b4 02                	mov    $0x2,%ah
    1b60:	cd 21                	int    $0x21
    1b62:	3c 0d                	cmp    $0xd,%al
    1b64:	75 12                	jne    1b78 <readString+0x58>
    1b66:	32 d2                	xor    %dl,%dl
    1b68:	88 14 8a             	mov    %dl,(%edx,%ecx,4)
    1b6b:	d0                   	(bad)  
    1b6c:	b4 02                	mov    $0x2,%ah
    1b6e:	cd 21                	int    $0x21
    1b70:	b2 0a                	mov    $0xa,%dl
    1b72:	b4 02                	mov    $0x2,%ah
    1b74:	cd 21                	int    $0x21
    1b76:	eb 1a                	jmp    1b92 <readString+0x72>
    1b78:	41                   	inc    %ecx
    1b79:	3b 4e 0a             	cmp    0xa(%esi),%ecx
    1b7c:	7d 0b                	jge    1b89 <readString+0x69>
    1b7e:	88 04 46             	mov    %al,(%esi,%eax,2)
    1b81:	8a d0                	mov    %al,%dl
    1b83:	b4 02                	mov    $0x2,%ah
    1b85:	cd 21                	int    $0x21
    1b87:	eb 9f                	jmp    1b28 <readString+0x8>
    1b89:	49                   	dec    %ecx
    1b8a:	b2 07                	mov    $0x7,%dl
    1b8c:	b4 02                	mov    $0x2,%ah
    1b8e:	cd 21                	int    $0x21
    1b90:	eb 96                	jmp    1b28 <readString+0x8>
    1b92:	5d                   	pop    %ebp
    1b93:	c3                   	ret    
    1b94:	66 90                	xchg   %ax,%ax
    1b96:	66 90                	xchg   %ax,%ax
    1b98:	66 90                	xchg   %ax,%ax
    1b9a:	66 90                	xchg   %ax,%ax
    1b9c:	66 90                	xchg   %ax,%ax
    1b9e:	66 90                	xchg   %ax,%ax

00001ba0 <round>:
    1ba0:	55                   	push   %ebp
    1ba1:	8b ec                	mov    %esp,%ebp
    1ba3:	9b db 6e 08          	fldt   0x8(%esi)
    1ba7:	9b d9 e4             	ftst   
    1baa:	9b dd 3e             	fstsw  (%esi)
    1bad:	ef                   	out    %eax,(%dx)
    1bae:	1b a1 ef 1b 9e 7c    	sbb    0x7c9e1bef(%ecx),%esp
    1bb4:	0a 9b db 2e e5 1b    	or     0x1be52edb(%ebx),%bl
    1bba:	9b de c1             	faddp  %st,%st(1)
    1bbd:	eb 08                	jmp    1bc7 <round+0x27>
    1bbf:	9b db 2e             	fldt   (%esi)
    1bc2:	e5 1b                	in     $0x1b,%eax
    1bc4:	9b de e9             	fsubrp %st,%st(1)
    1bc7:	9b d9 3e             	fstcw  (%esi)
    1bca:	ef                   	out    %eax,(%dx)
    1bcb:	1b a1 ef 1b 25 ff    	sbb    -0xdae411(%ecx),%esp
    1bd1:	f3 0d 00 0c a3 ef    	repz or $0xefa30c00,%eax
    1bd7:	1b 9b d9 2e ef 1b    	sbb    0x1bef2ed9(%ebx),%ebx
    1bdd:	8b 76 06             	mov    0x6(%esi),%esi
    1be0:	9b df 1c 5d c3 00 00 	fistp  0xc3(,%ebx,2)
    1be7:	00 

00001be5 <half>:
    1be5:	00 00                	add    %al,(%eax)
    1be7:	00 00                	add    %al,(%eax)
    1be9:	00 00                	add    %al,(%eax)
    1beb:	00 80 fe 3f 00 00    	add    %al,0x3ffe(%eax)

00001bef <tempw>:
    1bef:	00 00                	add    %al,(%eax)
    1bf1:	66 90                	xchg   %ax,%ax
    1bf3:	66 90                	xchg   %ax,%ax
    1bf5:	66 90                	xchg   %ax,%ax
    1bf7:	66 90                	xchg   %ax,%ax
    1bf9:	66 90                	xchg   %ax,%ax
    1bfb:	66 90                	xchg   %ax,%ax
    1bfd:	66 90                	xchg   %ax,%ax
    1bff:	90                   	nop

00001c00 <sin>:
    1c00:	55                   	push   %ebp
    1c01:	8b ec                	mov    %esp,%ebp
    1c03:	9b df 06             	fild   (%esi)
    1c06:	29 1c 9b             	sub    %ebx,(%ebx,%ebx,4)
    1c09:	db 6e 08             	fldt   0x8(%esi)
    1c0c:	9b d8 f1             	fdiv   %st(1),%st
    1c0f:	9b d9 f2             	fptan  
    1c12:	9b d9 c1             	fld    %st(1)
    1c15:	9b dc c8             	fmul   %st,%st(0)
    1c18:	9b de c1             	faddp  %st,%st(1)
    1c1b:	9b de f9             	fdivrp %st,%st(1)
    1c1e:	9b de c9             	fmulp  %st,%st(1)
    1c21:	8b 76 06             	mov    0x6(%esi),%esi
    1c24:	9b db 3c 5d c3 02 00 	fstpt  0x660002c3(,%ebx,2)
    1c2b:	66 

00001c29 <two>:
    1c29:	02 00                	add    (%eax),%al
    1c2b:	66 90                	xchg   %ax,%ax
    1c2d:	66 90                	xchg   %ax,%ax
    1c2f:	90                   	nop

00001c30 <sqrt>:
    1c30:	55                   	push   %ebp
    1c31:	8b ec                	mov    %esp,%ebp
    1c33:	9b db 6e 08          	fldt   0x8(%esi)
    1c37:	9b d9 fa             	fsqrt  
    1c3a:	8b 76 06             	mov    0x6(%esi),%esi
    1c3d:	9b db 3c 5d c3 66 90 	fstpt  0x669066c3(,%ebx,2)
    1c44:	66 
    1c45:	90                   	nop
    1c46:	66 90                	xchg   %ax,%ax
    1c48:	66 90                	xchg   %ax,%ax
    1c4a:	66 90                	xchg   %ax,%ax
    1c4c:	66 90                	xchg   %ax,%ax
    1c4e:	66 90                	xchg   %ax,%ax

00001c50 <tan>:
    1c50:	55                   	push   %ebp
    1c51:	8b ec                	mov    %esp,%ebp
    1c53:	9b db 6e 08          	fldt   0x8(%esi)
    1c57:	9b d9 f2             	fptan  
    1c5a:	9b dd c0             	ffree  %st(0)
    1c5d:	9b d9 f7             	fincstp 
    1c60:	8b 76 06             	mov    0x6(%esi),%esi
    1c63:	9b db 3c 5d c3 66 90 	fstpt  0x669066c3(,%ebx,2)
    1c6a:	66 
    1c6b:	90                   	nop
    1c6c:	66 90                	xchg   %ax,%ax
    1c6e:	66 90                	xchg   %ax,%ax

00001c70 <trunc>:
    1c70:	55                   	push   %ebp
    1c71:	8b ec                	mov    %esp,%ebp
    1c73:	9b d9 3e             	fstcw  (%esi)
    1c76:	95                   	xchg   %eax,%ebp
    1c77:	1c a1                	sbb    $0xa1,%al
    1c79:	95                   	xchg   %eax,%ebp
    1c7a:	1c 25                	sbb    $0x25,%al
    1c7c:	ff f3                	push   %ebx
    1c7e:	0d 00 0c a3 95       	or     $0x95a30c00,%eax
    1c83:	1c 9b                	sbb    $0x9b,%al
    1c85:	d9 2e                	fldcw  (%esi)
    1c87:	95                   	xchg   %eax,%ebp
    1c88:	1c 9b                	sbb    $0x9b,%al
    1c8a:	db 6e 08             	fldt   0x8(%esi)
    1c8d:	8b 76 06             	mov    0x6(%esi),%esi
    1c90:	9b                   	fwait
    1c91:	df                   	.byte 0xdf
    1c92:	1c 5d                	sbb    $0x5d,%al
    1c94:	c3                   	ret    

00001c95 <tempw>:
	...

Disassembly of section .fini:

00001c98 <_fini>:
    1c98:	53                   	push   %ebx
    1c99:	83 ec 08             	sub    $0x8,%esp
    1c9c:	e8 4f eb ff ff       	call   7f0 <__x86.get_pc_thunk.bx>
    1ca1:	81 c3 0f 11 00 00    	add    $0x110f,%ebx
    1ca7:	83 c4 08             	add    $0x8,%esp
    1caa:	5b                   	pop    %ebx
    1cab:	c3                   	ret    
